(lp0
(lp1
(lp2
I508
aI273
aI694
aI553
aI484
aI280
aI530
aI543
aI464
aI436
aI204
aI981
aa(lp3
I633
aI1440
aI1804
aI1253
aI1065
aI677
aI1116
aI856
aI1659
aI726
aI1132
aI683
aa(lp4
I3202
aI2905
aI2200
aI2363
aI2488
aI2282
aI2606
aI2044
aI1536
aI2338
aaa(lp5
(lp6
I510
aI273
aI530
aI277
aI421
aI393
aI517
aI341
aI336
aI366
aa(lp7
I723
aI548
aI683
aI565
aI647
aI367
aI1169
aI671
aI525
aI877
aa(lp8
I1333
aI1772
aI1177
aI1289
aI1915
aI1421
aI1123
aI1657
aI1613
aI2206
aaa(lp9
(lp10
I127
aI193
aI148
aI408
aI184
aI131
aI134
aI206
aI268
aI395
aa(lp11
I885
aI632
aI377
aI567
aI690
aI229
aI488
aI382
aI1293
aI514
aa(lp12
I1242
aI1071
aI935
aI1284
aI920
aI1056
aI1001
aI824
aI1048
aI712
aaa(lp13
(lp14
I188
aI141
aI347
aI178
aI210
aI173
aI183
aI311
aI154
aI137
aI226
aI200
aa(lp15
I387
aI471
aI356
aI342
aI306
aI752
aI385
aI390
aI294
aI432
aa(lp16
I704
aI840
aI688
aI993
aI878
aI894
aI741
aI705
aI639
aI722
aaa.