((lp0
I2495
aI2320
aI1227
aI853
aI1115
aI1132
aI1048
aI1732
aI1846
aI1739
aI1832
aI914
aI1516
aI2756
aI1433
a(lp1
I651
aI820
aI1143
aI1558
aI1173
aI975
aI1050
aI1075
aI1294
aI1163
aI1163
aI722
aI1594
aI1175
aI933
a(lp2
I760
aI762
aI876
aI514
aI375
aI623
aI1100
aI1109
aI1118
aI952
aI519
aI867
aI865
aI507
aI722
aI1186
aI819
aI621
aI670
a(lp3
I754
aI675
aI725
aI706
aI789
aI487
aI708
aI655
aI528
aI789
aI633
aI444
aI795
aI508
aI495
aI692
aI908
atp4
.