(lp0
(lp1
(lp2
I1146
aI1710
aI822
aI989
aI1353
aI1350
aI1799
aI1658
aI976
aI1133
aI1013
aI2264
aI1409
aI1165
aI1058
aI1671
aI1435
aI805
aI1157
aI1692
aI1027
aI1018
aI1370
aI1861
aI888
aI948
aI1209
aI1843
aI1447
aI1307
aI1248
aI1690
aI1518
aI838
aI836
aI1451
aI1940
aI847
aI991
aI1490
aI1063
aI1037
aI1035
aI741
aI1623
aI1004
aI610
aI1082
acnumpy.core.multiarray
scalar
p3
(cnumpy
dtype
p4
(S'i8'
p5
I0
I1
tp6
Rp7
(I3
S'<'
p8
NNNI-1
I-1
I0
tp9
bS'q\t\x00\x00\x00\x00\x00\x00'
p10
tp11
Rp12
aaa(lp13
(lp14
I1011
aI553
aI934
aI898
aI655
aI999
aI740
aI784
ag3
(g7
S'\x80\x06\x00\x00\x00\x00\x00\x00'
p15
tp16
Rp17
aI580
aI691
aI1046
aI765
aI1058
aI1110
aI1005
aI1048
aI793
aI888
aI883
aI1117
aI970
aI1222
aI737
aI842
aI807
aI1236
aI1061
aI1004
aI1120
aI726
aI757
aI777
aI618
aI895
aI1041
aI1144
aI1204
aI1440
aI841
aI1111
aI711
aI957
aI1011
aI1136
aI858
aI1171
aI1058
aI841
aI1005
aaa(lp18
(lp19
I1050
aI1127
aI996
aI805
aI680
aI921
aI769
aI576
aI719
aI877
aI683
aI606
aI899
aI668
aI771
aI881
aI864
aI686
aI754
aI637
aI909
aI772
aI852
aI612
aI663
aI928
aI1166
aI818
aI835
aI713
aI728
aI916
aI977
aI493
aI949
aI920
aI661
aI973
aI853
aI988
aI853
aI939
aI769
aI658
aI777
aI687
aI762
aI707
ag3
(g7
S'\x9a\x04\x00\x00\x00\x00\x00\x00'
p20
tp21
Rp22
aI736
aaa(lp23
(lp24
I719
aI984
ag3
(g7
S'\xf4\x03\x00\x00\x00\x00\x00\x00'
p25
tp26
Rp27
aI757
aI387
aI542
aI585
aI695
aI868
aI549
aI828
aI859
aI565
aI748
aI698
aI467
aI835
aI565
aI768
aI476
aI405
aI617
aI420
aI996
aI670
aI662
aI1015
aI846
aI515
aI763
aI765
aI590
aI859
aI513
aI609
aI647
aI858
aI684
aI674
aI557
aI546
aI827
aI496
aI851
aI786
aI460
aI596
aI515
aI759
aI612
aaa(lp28
(lp29
I764
aI703
aI906
aI563
aI678
aI1052
aI739
aI737
aI597
aI486
aI630
aI560
aI839
aI1074
aI584
aI530
aI551
aI484
aI578
aI647
aI681
aI603
aI553
aI639
ag3
(g7
S'E\x04\x00\x00\x00\x00\x00\x00'
p30
tp31
Rp32
aI739
aI464
aI827
aI913
aI773
aI803
aI621
aI489
aI506
aI584
aI467
aI509
aI577
aI577
aI765
aI903
aI669
aI575
aI478
aI544
aI623
aI817
aI446
aI553
aI445
aaa(lp33
(lp34
I604
aI587
aI806
aI424
aI634
aI642
aI492
aI574
ag3
(g7
S'\x8e\x03\x00\x00\x00\x00\x00\x00'
p35
tp36
Rp37
aI563
aI594
aI699
aI570
aI478
aI745
aI488
aI725
aI621
aI427
aI567
aI672
aI802
aI546
aI634
aI613
aI596
aI523
aI788
aI543
aI637
aI514
aI520
aI660
aI877
aI456
aI499
aI434
aI583
aI744
aI651
aI664
aI525
aI623
aI627
aI629
aI779
aI505
aI827
aI575
aI503
aaa(lp38
(lp39
I595
aI725
aI642
aI504
aI499
aI398
aI507
aI454
aI484
aI593
aI560
aI439
aI516
aI487
aI504
aI418
aI591
aI671
aI572
aI655
aI338
aI691
aI359
aI705
ag3
(g7
S'%\x03\x00\x00\x00\x00\x00\x00'
p40
tp41
Rp42
aI488
aI586
aI664
aI605
aI437
aI629
aI709
aI526
aI584
aI397
aI785
aI500
aI594
aI575
aI527
aI431
aI626
aI515
aI445
aI493
aI807
aI655
aI425
aI702
aI570
aaa(lp43
(lp44
I675
aI350
aI593
aI386
aI383
aI571
aI595
aI629
aI629
aI544
aI585
aI448
aI398
aI450
aI489
aI526
aI352
aI366
aI519
aI467
aI573
aI566
aI389
aI652
aI485
aI487
aI497
aI296
aI548
aI495
aI547
aI461
aI477
aI755
aI673
aI593
aI605
aI651
aI464
aI572
aI547
aI568
aI644
aI609
aI545
ag3
(g7
S'U\x03\x00\x00\x00\x00\x00\x00'
p45
tp46
Rp47
aI609
aI498
aI478
aI541
aaa(lp48
(lp49
I582
aI513
aI530
aI539
aI442
aI487
aI402
aI689
aI595
aI410
aI734
aI593
aI751
aI371
aI525
aI389
aI599
aI418
aI779
aI415
aI506
aI477
aI313
aI791
aI511
aI385
aI436
aI602
aI566
aI419
aI390
aI470
aI700
aI781
aI385
aI614
aI615
aI543
aI402
aI648
aI491
aI452
aI451
aI335
aI482
ag3
(g7
S'\xfe\x04\x00\x00\x00\x00\x00\x00'
p50
tp51
Rp52
aI564
aI485
aI474
aI640
aaa(lp53
(lp54
I489
aI614
aI587
aI520
aI417
aI701
aI436
aI524
aI419
aI520
aI438
aI323
aI388
aI606
aI453
aI572
aI712
aI399
aI497
aI319
aI497
aI543
aI428
aI570
aI372
aI476
aI633
aI564
aI412
aI423
aI490
aI483
aI518
aI458
aI521
aI368
aI498
aI501
aI322
aI565
aI522
aI595
aI436
aI457
aI503
ag3
(g7
S'\x85\x05\x00\x00\x00\x00\x00\x00'
p55
tp56
Rp57
aI438
aI451
aI546
aaa(lp58
(lp59
I380
aI421
aI509
aI453
aI359
aI446
aI535
aI434
aI426
aI499
aI680
aI667
aI642
aI521
aI545
aI469
aI341
aI445
aI454
aI490
aI308
aI486
aI643
aI615
aI414
aI406
aI383
aI368
aI465
aI496
aI606
aI439
aI497
aI450
aI333
aI381
aI449
aI539
aI432
aI443
aI384
aI582
aI323
aI455
aI315
ag3
(g7
S'b\x05\x00\x00\x00\x00\x00\x00'
p60
tp61
Rp62
aI511
aI449
aI442
aI422
aaa(lp63
(lp64
I611
aI574
aI411
aI769
aI296
aI319
aI363
aI559
aI400
aI483
aI428
aI461
aI365
aI551
aI397
aI497
aI402
aI342
aI402
aI464
aI470
aI406
aI574
aI597
aI364
aI711
aI535
aI438
aI489
aI356
aI570
aI378
aI431
aI574
aI356
aI461
aI516
aI465
aI552
aI423
aI422
aI478
aI372
aI692
aI484
ag3
(g7
S'\x8a\x04\x00\x00\x00\x00\x00\x00'
p65
tp66
Rp67
aI398
aI371
aI427
aI619
aaa(lp68
(lp69
I663
aI375
aI313
aI389
aI567
aI402
aI488
aI445
aI447
aI430
aI396
aI379
aI501
aI402
aI448
aI525
aI385
aI490
aI352
aI482
aI402
aI443
aI532
aI423
aI611
aI383
aI486
aI459
aI443
aI642
aI536
aI372
aI402
aI492
aI483
aI444
aI383
aI474
aI562
aI492
aI473
aI467
aI313
aI375
aI420
ag3
(g7
S'\xc6\x04\x00\x00\x00\x00\x00\x00'
p70
tp71
Rp72
aI393
aI352
aI358
aI535
aaa(lp73
(lp74
I459
aI427
aI302
aI430
aI627
aI450
aI577
aI531
aI497
aI480
aI440
aI511
aI472
aI498
aI434
aI463
aI269
aI375
aI573
aI591
aI425
aI376
aI405
aI388
aI488
aI384
aI601
aI554
aI417
aI356
aI595
aI455
aI377
aI448
aI604
aI431
aI587
aI515
aI524
aI473
aI365
aI507
aI458
aI604
aI403
ag3
(g7
S'\x7f\x05\x00\x00\x00\x00\x00\x00'
p75
tp76
Rp77
aI415
aI444
aI589
aI491
aaa(lp78
(lp79
I455
aI490
aI294
aI440
aI329
aI353
aI381
aI507
aI523
aI380
aI521
aI459
aI537
aI429
aI397
aI316
aI321
aI523
aI489
aI530
aI531
aI494
aI489
aI422
aI443
aI547
aI467
aI392
aI323
aI513
aI445
aI396
aI376
aI497
aI424
aI385
aI368
aI351
aI368
aI416
aI389
aI509
aI391
aI489
aI401
ag3
(g7
S'\x94\x04\x00\x00\x00\x00\x00\x00'
p80
tp81
Rp82
aI487
aI466
aI321
aI431
aaa(lp83
(lp84
I487
aI309
aI386
aI418
aI514
aI443
aI274
aI420
aI478
aI492
aI448
aI362
aI354
aI351
aI418
aI532
aI335
aI330
aI382
aI526
aI417
aI510
aI398
aI387
aI422
aI217
aI373
aI408
aI253
aI411
aI438
aI654
aI441
aI419
aI412
aI416
aI473
aI467
aI416
aI438
aI379
aI485
aI457
aI533
aI532
ag3
(g7
S'\xa3\x04\x00\x00\x00\x00\x00\x00'
p85
tp86
Rp87
aI293
aI381
aI377
aI388
aaa(lp88
(lp89
I464
aI477
aI362
aI524
aI402
aI405
aI324
aI447
aI445
aI351
aI370
aI320
aI453
aI287
aI467
aI339
aI323
aI360
aI419
aI340
aI362
aI309
aI333
aI403
aI451
aI365
aI320
aI398
aI459
aI478
aI366
aI349
aI389
aI496
aI675
aI336
aI468
aI436
aI434
aI417
aI311
aI454
aI506
aI426
aI290
ag3
(g7
S'\x85\x05\x00\x00\x00\x00\x00\x00'
p90
tp91
Rp92
aI542
aI435
aI448
aI520
aaa.