(lp0
(lp1
(lp2
I680
aI457
aI1686
aI633
aI117
aI124
aI314
aI479
aI693
aI528
aI1557
aI1
aI195
aI1738
aI655
aI1330
aI818
aI174
aI30
aI108
aI1321
aI805
aI607
aI429
aFnan
aI700
aI634
aI777
aI942
aI658
aI697
aI7
aI1548
aI550
aI286
aI116
aFnan
aI28
aI207
aI1203
aI196
aI1022
aI241
aFnan
aI1129
aI544
aI867
aI318
aI645
aI720
aI379
aI1812
aI416
aI1042
aI302
aI1637
aI940
aI402
aI1443
aI1350
aI1135
aI1716
aI762
aI220
aI1099
aI271
aI47
aI74
aI746
aI27
aI30
aI295
aI226
aI983
aI564
aI341
aI1765
aI475
aI1477
aI706
aI884
aI422
aI42
aI851
aI646
aI200
aI954
aI347
aFnan
aFnan
aI1
aI1018
aI395
aI70
aI487
aI908
aI1145
aI0
aI190
aI664
aa(lp3
I1593
aI1195
aI526
aI1169
aI704
aI1609
aFnan
aI527
aI880
aFnan
aI700
aFnan
aI1404
aFnan
aI1448
aI2071
aI968
aI235
aI1348
aFnan
aI1769
aI670
aI1564
aI574
aI730
aI1847
aI1516
aI1371
aI434
aI701
aFnan
aI254
aI1102
aI616
aI1124
aI317
aI1108
aI899
aI1024
aFnan
aFnan
aI321
aI337
aI1011
aI974
aFnan
aFnan
aFnan
aI1538
aI548
aI1509
aI1716
aI1041
aI992
aI498
aI895
aFnan
aI690
aI974
aFnan
aI1523
aI1858
aI765
aFnan
aI1533
aI459
aI946
aI1718
aI970
aI1257
aI1816
aI1333
aFnan
aI1850
aI244
aI1460
aI1564
aI919
aI1485
aI935
aI1328
aI1519
aFnan
aI1779
aI866
aI1009
aFnan
aI1869
aFnan
aI396
aI898
aFnan
aI210
aI867
aI736
aI1489
aI170
aI980
aI460
aFnan
aa(lp4
Fnan
aI1530
aFnan
aI1766
aI1371
aI1793
aI540
aFnan
aI2064
aI1319
aFnan
aI1568
aFnan
aI1215
aI1151
aI670
aI1167
aI1591
aI1366
aI1321
aFnan
aFnan
aI1893
aI1100
aFnan
aI1788
aFnan
aI952
aI961
aI651
aI1774
aI1152
aI1828
aI547
aFnan
aI929
aFnan
aI1829
aI1019
aFnan
aI755
aI1796
aFnan
aI1733
aI754
aFnan
aI508
aI287
aFnan
aFnan
aI1544
aI1638
aI1070
aI1684
aI1913
aFnan
aFnan
aFnan
aFnan
aFnan
aFnan
aFnan
aI818
aFnan
aI1937
aI1678
aFnan
aI1737
aI1369
aFnan
aI1353
aI1710
aFnan
aI1376
aFnan
aFnan
aI1694
aI722
aFnan
aI1044
aI1763
aFnan
aI1996
aI1948
aFnan
aFnan
aFnan
aI1662
aI1806
aI1605
aI1413
aI1157
aI1212
aI950
aFnan
aI784
aI1134
aI358
aI1686
aI1384
aa(lp5
Fnan
aFnan
aFnan
aI1745
aI1270
aFnan
aFnan
aFnan
aFnan
aI1608
aI2076
aFnan
aFnan
aI1985
aFnan
aFnan
aI1761
aI1980
aFnan
aFnan
aI1742
aFnan
aFnan
aFnan
aFnan
aFnan
aFnan
aFnan
aI1629
aFnan
aFnan
aI1964
aI1683
aI1466
aI1932
aFnan
aFnan
aI1133
aFnan
aFnan
aI1985
aI1596
aI1810
aI1176
aFnan
aFnan
aI1384
aI1897
aFnan
aI1556
aFnan
aI1644
aFnan
aFnan
aI1592
aI1952
aFnan
aFnan
aI1826
aI1709
aFnan
aFnan
aI1461
aI2034
aI602
aFnan
aI1909
aFnan
aI1725
aFnan
aFnan
aI1541
aI1250
aFnan
aFnan
aI1580
aI2097
aFnan
aI1379
aI1329
aFnan
aFnan
aFnan
aFnan
aI1488
aFnan
aFnan
aI2022
aFnan
aI1024
aFnan
aI1117
aI1966
aFnan
aFnan
aFnan
aFnan
aFnan
aI1929
aI779
aa(lp6
I813
aI1829
aI1961
aI729
aFnan
aI1283
aFnan
aI1626
aFnan
aFnan
aI1335
aFnan
aFnan
aI1152
aFnan
aI1943
aFnan
aFnan
aFnan
aFnan
aFnan
aFnan
aFnan
aFnan
aFnan
aI1220
aI1296
aFnan
aFnan
aI749
aFnan
aFnan
aFnan
aFnan
aI1019
aFnan
aI1414
aI2069
aFnan
aI1456
aFnan
aFnan
aFnan
aFnan
aI522
aFnan
aFnan
aFnan
aI1474
aI2007
aI1650
aI1864
aI1833
aFnan
aFnan
aI1259
aFnan
aFnan
aI1988
aI1684
aFnan
aI1958
aFnan
aFnan
aFnan
aFnan
aFnan
aFnan
aI1710
aFnan
aFnan
aFnan
aFnan
aFnan
aFnan
aI634
aI1889
aI1384
aFnan
aI1567
aI1412
aFnan
aI845
aFnan
aI1305
aI1119
aI1486
aI1963
aFnan
aFnan
aFnan
aI1585
aFnan
aI1716
aI1836
aFnan
aFnan
aFnan
aFnan
aFnan
aa(lp7
Fnan
aI1919
aFnan
aI1714
aFnan
aFnan
aFnan
aI1799
aFnan
aFnan
aFnan
aI2029
aI1467
aFnan
aFnan
aFnan
aFnan
aI1872
aI2057
aFnan
aFnan
aFnan
aFnan
aFnan
aFnan
aFnan
aFnan
aFnan
aFnan
aFnan
aI2001
aFnan
aFnan
aFnan
aFnan
aI1853
aFnan
aI2053
aI1630
aFnan
aFnan
aFnan
aFnan
aFnan
aFnan
aI1380
aFnan
aFnan
aFnan
aFnan
aFnan
aFnan
aFnan
aI1757
aFnan
aFnan
aI854
aFnan
aFnan
aI1887
aI1728
aI939
aI2064
aFnan
aI1177
aFnan
aFnan
aI1284
aI1565
aFnan
aI1702
aI675
aFnan
aFnan
aI1514
aFnan
aI1488
aFnan
aFnan
aFnan
aI2097
aFnan
aI1781
aFnan
aFnan
aFnan
aFnan
aFnan
aFnan
aFnan
aFnan
aFnan
aI1512
aFnan
aFnan
aFnan
aI1822
aFnan
aI2091
aFnan
aaa(lp8
(lp9
I910
aI2002
aI400
aI54
aI170
aI408
aI336
aI674
aI595
aI319
aI327
aI610
aI404
aI339
aI362
aI281
aI279
aI511
aI264
aI568
aI144
aI377
aI230
aI614
aI653
aI666
aI99
aI92
aI254
aI229
aI66
aI33
aI133
aI341
aFnan
aI104
aI231
aI284
aI270
aI81
aI1361
aI154
aI217
aI259
aI123
aI36
aI130
aI327
aI428
aI203
aI196
aI231
aI95
aI462
aI386
aI460
aI113
aI390
aI570
aI83
aI537
aI168
aI164
aI199
aI1005
aI488
aI216
aI619
aI253
aI471
aI54
aI68
aI247
aI113
aI24
aI506
aI308
aI425
aI251
aI300
aI236
aI629
aI328
aI515
aI408
aI331
aI158
aI797
aI39
aI282
aI131
aI133
aI650
aI150
aI258
aI1147
aI278
aI234
aI287
aI384
aa(lp10
I503
aI533
aI1131
aI1231
aI891
aI954
aI1057
aI709
aI168
aI1029
aI329
aI54
aI270
aI600
aI616
aI1345
aI1108
aI385
aI289
aI457
aI308
aI1100
aI557
aI859
aI349
aI1129
aI402
aI1068
aI447
aI1146
aI402
aI771
aI388
aI1349
aI419
aI1300
aI1179
aI864
aI868
aI912
aI653
aI1241
aI363
aI913
aI390
aI531
aI510
aI407
aI1787
aI889
aI429
aFnan
aI381
aI512
aI444
aI782
aI372
aI553
aI671
aI654
aI263
aI202
aI444
aI653
aI708
aI922
aI270
aI1088
aI926
aI1002
aI508
aI848
aI589
aI387
aI360
aI463
aI581
aI362
aI585
aI261
aI1426
aI1490
aI874
aI1346
aI599
aI1312
aI593
aI764
aI145
aI813
aI1109
aI437
aI656
aI380
aI526
aI474
aI322
aFnan
aI519
aI184
aa(lp11
I1300
aI1328
aI328
aI455
aI362
aI625
aI1158
aI1569
aI535
aI542
aI931
aI1113
aI1286
aI653
aI791
aI1265
aI810
aI551
aI1028
aI243
aI627
aI1320
aI726
aI271
aI788
aI912
aI741
aI382
aI719
aI729
aI941
aI731
aI545
aFnan
aI869
aFnan
aI386
aI960
aI796
aI1196
aI394
aI787
aI811
aI789
aI485
aI600
aI1092
aI634
aI543
aI338
aI1734
aI399
aI335
aI445
aI325
aI1509
aI251
aI364
aI388
aI734
aI1032
aI522
aI744
aI650
aI451
aI643
aI1224
aI1381
aI1325
aI931
aI539
aI1326
aI1190
aI826
aI672
aI1686
aI1161
aI1610
aI55
aI362
aI542
aI671
aI1246
aI1343
aI413
aI810
aI980
aI1193
aI347
aI478
aI646
aI1279
aI419
aI682
aI226
aI631
aI954
aI1027
aI719
aI672
aa(lp12
I687
aI604
aI626
aI880
aI1440
aI471
aI1268
aI887
aI1522
aI640
aI1127
aI571
aFnan
aI1868
aI778
aI773
aI1153
aI1084
aI308
aI526
aI1147
aI624
aI1237
aI1245
aI749
aI907
aI1510
aI1278
aI650
aI617
aI872
aI1213
aI712
aI967
aI1586
aI707
aI923
aI459
aI889
aI1257
aFnan
aI1006
aI560
aI765
aI396
aI1450
aI1580
aI1453
aI811
aI1439
aI844
aI1282
aI1389
aI581
aI1267
aI949
aI1660
aI1764
aI1706
aI1158
aI1518
aI1316
aI905
aI450
aI818
aI760
aI1609
aI1040
aI567
aI1517
aI1392
aI230
aI1105
aI1270
aI1107
aI911
aI1157
aI1442
aI1642
aI1574
aI119
aI429
aFnan
aI1413
aI1150
aI1355
aI1046
aI861
aI948
aI830
aI1105
aI936
aI1289
aI671
aI942
aI957
aI1364
aI497
aI1257
aI1666
aa(lp13
I1789
aI1148
aI1063
aI1208
aI595
aI745
aI736
aI988
aI1036
aI426
aI527
aI613
aI1696
aI1348
aI693
aI1361
aI1758
aI473
aI863
aI951
aI766
aI1142
aI941
aI786
aI2019
aI1109
aI1416
aI1198
aI582
aI1177
aI1223
aI736
aI1491
aI851
aI937
aI1441
aI1771
aI1725
aI625
aI899
aI1396
aI751
aI1068
aI1523
aI820
aI1011
aI843
aI581
aI1103
aI1412
aI1873
aI935
aI1299
aI1279
aI861
aI1094
aI1767
aI632
aI1140
aI957
aI1044
aI1136
aI1119
aI1934
aI576
aI764
aI309
aI1119
aI1389
aI775
aI565
aI1095
aI619
aI1393
aI1011
aI1381
aI803
aI1178
aI372
aFnan
aI1253
aI755
aI1039
aI528
aI1005
aI854
aI983
aI1225
aI801
aI1118
aI661
aI1037
aI1623
aI1802
aI486
aI1067
aI1557
aI1500
aI1335
aI619
aa(lp14
I1250
aI1341
aI1505
aFnan
aI915
aI287
aI1215
aI1558
aI1069
aI1122
aFnan
aI1439
aI1723
aI1425
aI1459
aI1145
aI1441
aI821
aI1371
aI1357
aI919
aFnan
aI857
aI1483
aI1698
aI1086
aI562
aI1455
aI975
aI648
aI1798
aI972
aI951
aI1676
aI1779
aI2010
aI1528
aI679
aI1366
aI1119
aI1004
aI1411
aI452
aI1364
aI611
aI1125
aI1307
aI1668
aFnan
aI1031
aI896
aI938
aI343
aI1734
aI811
aI1046
aI1302
aI832
aI897
aI918
aI1120
aI1644
aI984
aI1194
aI1817
aI1201
aI1219
aFnan
aI1539
aI734
aI1189
aI1431
aI1499
aI919
aI992
aI736
aI988
aI469
aI257
aI950
aaa(lp15
(lp16
I63
aI296
aI175
aI224
aI76
aI747
aI107
aI68
aI225
aI235
aI100
aI420
aI221
aI68
aI62
aI265
aI138
aI76
aI260
aI173
aI41
aI42
aI135
aI27
aI195
aI67
aI51
aI116
aI68
aI64
aI61
aI158
aI43
aI73
aI545
aI154
aI33
aI112
aI38
aI169
aI282
aI83
aI37
aI18
aI30
aI48
aI134
aI98
aI85
aI67
aI119
aI16
aI312
aI58
aI222
aI43
aI235
aI70
aI64
aI63
aI67
aI29
aI84
aI36
aI60
aI448
aI402
aI47
aI83
aI200
aI36
aI293
aI165
aI217
aI175
aI57
aI33
aI69
aI69
aI18
aI78
aI592
aFnan
aI67
aI48
aI79
aI105
aI127
aI34
aI51
aI137
aI329
aI106
aI103
aI656
aI32
aI69
aI144
aI185
aI116
aa(lp17
I214
aI111
aI228
aI154
aI295
aI129
aI224
aI224
aI75
aI46
aI239
aI128
aI291
aFnan
aI258
aI261
aI544
aI294
aI102
aI157
aI870
aI344
aI181
aI134
aI103
aI217
aI81
aI329
aI187
aI221
aI256
aI240
aI478
aI249
aI285
aI83
aI337
aI246
aI59
aI411
aI215
aI193
aI253
aI217
aI238
aI310
aI169
aI146
aI146
aI844
aI250
aI186
aI230
aI303
aI405
aI392
aI659
aI172
aI434
aI140
aI154
aI1000
aI103
aI65
aI365
aI511
aI1392
aI1177
aI108
aI158
aI220
aI127
aI165
aI432
aI410
aI344
aI159
aI224
aI524
aI110
aI267
aI151
aI163
aI973
aI539
aI172
aI342
aI436
aI122
aI749
aI658
aI549
aI624
aI715
aI552
aI295
aI216
aI70
aI92
aI605
aa(lp18
I378
aI194
aI190
aI357
aI122
aI316
aI193
aI210
aI952
aI272
aI960
aI765
aI303
aI204
aI274
aI172
aI494
aI214
aI1471
aI269
aI140
aI1287
aI241
aI596
aI196
aI270
aI338
aI594
aI315
aI564
aI629
aI116
aI166
aI904
aI172
aI862
aI660
aI1164
aI204
aI312
aI205
aI253
aI558
aI192
aI203
aI344
aI319
aI1598
aFnan
aI219
aI924
aI255
aI136
aI422
aI209
aI290
aI237
aI284
aI271
aI343
aI253
aI300
aI116
aI409
aI81
aI338
aI387
aI572
aI270
aI215
aI514
aI197
aI220
aI711
aI493
aI239
aI227
aI171
aI360
aI223
aI274
aI186
aI547
aI429
aI206
aI379
aI97
aI165
aI792
aI275
aI330
aI1209
aI147
aI263
aI438
aI254
aI180
aI243
aI265
aI991
aa(lp19
I405
aI351
aI581
aI444
aI411
aI184
aI1504
aI364
aI882
aI456
aI211
aI209
aI549
aI258
aI912
aI629
aI341
aI145
aI410
aI1221
aI163
aI545
aI279
aFnan
aI355
aI370
aI340
aI330
aI668
aI105
aI465
aI276
aI358
aI276
aI652
aI255
aI376
aI614
aI177
aI996
aI468
aI530
aI614
aI549
aI1126
aI454
aI189
aI187
aI542
aI445
aI577
aI269
aI947
aI390
aI396
aI344
aI1785
aI589
aI172
aI409
aI698
aI176
aI707
aI98
aI553
aI1509
aI351
aI209
aI466
aI721
aI809
aI1350
aI584
aI496
aI400
aI623
aI131
aI561
aI280
aI358
aI1887
aI164
aI291
aI1989
aI143
aI365
aI260
aI321
aI254
aI543
aI271
aI265
aI234
aI455
aI453
aI505
aI195
aI87
aI260
aI495
aa(lp20
I795
aI169
aI134
aI191
aI250
aI399
aI328
aI402
aI416
aI564
aI366
aI1007
aI350
aI1784
aI503
aI408
aI1714
aI344
aI261
aFnan
aI1456
aI438
aI164
aI374
aI1336
aI265
aI734
aI334
aI337
aI372
aI421
aI245
aI687
aI546
aI1145
aI379
aI535
aI297
aI225
aI303
aI867
aI722
aI649
aI408
aI705
aI421
aI953
aI787
aI773
aI1149
aI622
aI515
aI460
aI581
aI474
aI461
aI528
aI568
aI186
aI248
aI370
aI193
aI427
aI687
aI316
aI886
aI985
aI1323
aI517
aI587
aFnan
aI850
aI549
aI743
aI324
aI551
aI408
aI832
aI330
aI342
aI182
aI729
aI796
aI430
aI852
aI231
aI206
aI234
aI770
aI194
aI537
aI800
aI1474
aI1513
aI418
aI574
aI370
aI315
aI455
aI254
aa(lp21
I647
aI299
aI292
aFnan
aI521
aI490
aI304
aI719
aI2022
aI654
aI909
aI1091
aI362
aI1921
aI385
aI1318
aI666
aI375
aFnan
aI1007
aI832
aI792
aI447
aI2053
aI459
aI690
aI249
aI1026
aI307
aI422
aI780
aI202
aI175
aI1075
aI888
aI331
aI1740
aI850
aI324
aI297
aI364
aI820
aI553
aI236
aI540
aI253
aI727
aI448
aI265
aI629
aI1231
aI664
aI1137
aI807
aI821
aI899
aFnan
aI1064
aI448
aI200
aI478
aI608
aI582
aI2087
aI453
aI483
aI561
aI615
aI385
aI383
aI728
aI909
aI309
aI336
aI879
aI1630
aI571
aI1143
aI1152
aI316
aI280
aI197
aI617
aI840
aI612
aI1638
aI231
aI793
aI714
aI856
aI617
aI879
aI1081
aI615
aI1288
aI1088
aI218
aI277
aI567
aI1526
aaa(lp22
(lp23
I141
aI35
aI115
aI324
aI39
aI334
aI41
aI142
aI123
aI46
aI304
aI152
aI76
aI418
aI40
aI71
aI22
aI197
aI390
aI39
aI67
aI751
aI35
aI50
aI42
aI43
aI43
aI14
aI21
aI105
aI30
aI23
aI30
aI375
aI132
aI232
aI97
aI28
aI28
aI85
aI28
aI21
aFnan
aI261
aI252
aI150
aI330
aI47
aI50
aI76
aI45
aI66
aI262
aI271
aI37
aI29
aI257
aI313
aI218
aI56
aI79
aI84
aI709
aI231
aI31
aI22
aI13
aI56
aI47
aI76
aI38
aI14
aI78
aI10
aI37
aI106
aI41
aI39
aI44
aI48
aI23
aI77
aI68
aI82
aI31
aI23
aI60
aI54
aI175
aI28
aI27
aI338
aI50
aI210
aI664
aI48
aI36
aI863
aI46
aI312
aa(lp24
I279
aI334
aI114
aI82
aI59
aI120
aI193
aI169
aI777
aI112
aI149
aI157
aI99
aI113
aI345
aI300
aI482
aI55
aI301
aI251
aI173
aI87
aI569
aI191
aI106
aI155
aI265
aI122
aI199
aI121
aI175
aI356
aI150
aI639
aI46
aI116
aFnan
aI229
aI205
aI260
aI445
aI101
aI449
aI205
aI262
aI70
aI70
aI65
aI333
aI139
aI349
aI109
aI206
aI87
aI553
aI50
aI733
aI54
aI49
aI168
aI939
aI65
aI117
aI61
aI101
aI306
aI196
aI59
aI127
aI101
aI373
aI119
aI104
aI238
aI143
aI141
aI210
aI126
aI73
aI340
aI207
aI121
aFnan
aI954
aI118
aI53
aI54
aI151
aI195
aI529
aI143
aI1344
aI76
aI143
aI163
aI135
aI177
aFnan
aI82
aI392
aa(lp25
I351
aI183
aI135
aI344
aI247
aI439
aI337
aI111
aI218
aI63
aI279
aI160
aI308
aI747
aI62
aI316
aI181
aI87
aI256
aI106
aI122
aI81
aI257
aFnan
aI207
aI100
aI391
aI249
aI58
aI341
aI41
aI236
aI129
aI117
aI168
aI137
aI499
aI192
aI240
aI456
aI319
aI318
aI296
aI178
aI451
aI125
aI271
aI66
aI187
aI151
aI160
aI453
aI120
aI168
aI446
aI305
aI119
aI103
aI114
aI274
aI80
aI161
aI69
aI182
aI185
aI264
aI308
aI122
aI162
aI114
aI381
aI154
aI480
aI109
aI298
aI404
aI115
aI241
aI247
aI217
aI313
aI93
aI366
aI176
aFnan
aI137
aI103
aI136
aI257
aI108
aI301
aI470
aI180
aI73
aI264
aFnan
aI323
aI210
aI99
aFnan
aa(lp26
I269
aI333
aI198
aI238
aI358
aI301
aI141
aI183
aI129
aI162
aI401
aI709
aI116
aFnan
aI104
aI162
aI563
aI187
aI80
aI305
aI161
aI453
aI346
aI207
aI1027
aI202
aI288
aI222
aI210
aI154
aI390
aI209
aI257
aI196
aI251
aI199
aI304
aI346
aI84
aI147
aI183
aI429
aI205
aI145
aI107
aI208
aI342
aI286
aI323
aI97
aI170
aI412
aI213
aI149
aI120
aI216
aI390
aI235
aI230
aI271
aI346
aI176
aI423
aI330
aI141
aI290
aI198
aI200
aI343
aI372
aI355
aI234
aI117
aI247
aI462
aI138
aI164
aI221
aI633
aI87
aI106
aI245
aI661
aI310
aI161
aI341
aI362
aI186
aI161
aI332
aI213
aI212
aI192
aI244
aI505
aI200
aI178
aI597
aI217
aI396
aa(lp27
I189
aI329
aI299
aI288
aI235
aI385
aI162
aI284
aI237
aI297
aI610
aI326
aI276
aI284
aI241
aI538
aI310
aFnan
aI158
aI230
aI221
aI267
aI418
aI132
aI198
aI331
aI148
aI400
aI423
aI216
aI291
aI836
aI290
aI284
aI284
aI254
aI176
aI508
aI158
aI410
aI185
aI95
aI160
aI185
aI350
aI116
aI298
aI453
aI221
aI708
aI361
aI258
aI135
aI245
aI205
aI337
aI350
aI297
aI119
aI436
aI254
aI265
aI293
aI844
aI162
aI221
aI182
aI467
aI261
aI136
aI372
aI242
aFnan
aI473
aI192
aI482
aI264
aI163
aI298
aI261
aI132
aI240
aI287
aI417
aI165
aI112
aI223
aI215
aI484
aI207
aI323
aI466
aI357
aI166
aI435
aI705
aI278
aI195
aI377
aI248
aa(lp28
I201
aI224
aI458
aI339
aI298
aI247
aI317
aI324
aI507
aI177
aI416
aI515
aI216
aI473
aI423
aI233
aI277
aI300
aI281
aI307
aI140
aI486
aI254
aI551
aI438
aI376
aI247
aI98
aI407
aI495
aI322
aI210
aI309
aI258
aI387
aI329
aI141
aI522
aI293
aI264
aI222
aI222
aI292
aI183
aI107
aI271
aI497
aI172
aI410
aI205
aI234
aI222
aI176
aI389
aI376
aI762
aI201
aI363
aI224
aI202
aI206
aI208
aI410
aI152
aI361
aI201
aI215
aI231
aI260
aI175
aI390
aI282
aI358
aI250
aI571
aI406
aI205
aI439
aI477
aI258
aI393
aI274
aI432
aI303
aI177
aI202
aI392
aFnan
aI303
aI261
aI272
aI202
aI424
aI302
aI284
aI353
aI449
aI322
aI253
aI252
aaa(lp29
(lp30
I62
aI61
aI38
aI37
aFnan
aI37
aI36
aI58
aI35
aI34
aI32
aI392
aI34
aI59
aI83
aI87
aI18
aI16
aI22
aI61
aI202
aI19
aI78
aI64
aI24
aI62
aI82
aI56
aI27
aI37
aI405
aI31
aI237
aI355
aI23
aI99
aI137
aI47
aI48
aI16
aI39
aI18
aI22
aI39
aI15
aI43
aI22
aI45
aI37
aI40
aI17
aI34
aI24
aI17
aI60
aI49
aI27
aI56
aI90
aI39
aI48
aI38
aI23
aI128
aI28
aI63
aI21
aI13
aI44
aI202
aI26
aI22
aI507
aI22
aI47
aI67
aI32
aI207
aI38
aI73
aI37
aI59
aI31
aI59
aI85
aI294
aI47
aI130
aI122
aI13
aI18
aI38
aI27
aI51
aI22
aI51
aI192
aI50
aI41
aI40
aa(lp31
I84
aI54
aI130
aI50
aI104
aI330
aI101
aI44
aI36
aI198
aI94
aI104
aI152
aI330
aI60
aI381
aI65
aI152
aI268
aI233
aI304
aI58
aI365
aI104
aI305
aI107
aI42
aI62
aI490
aI198
aI63
aI76
aI71
aI245
aI101
aI71
aI182
aI113
aI131
aFnan
aI354
aI140
aI176
aI69
aI317
aI87
aI43
aI77
aI98
aI116
aI82
aI98
aI75
aI413
aI45
aI221
aI45
aI76
aI69
aI84
aI117
aI167
aI53
aI73
aI123
aI75
aI50
aI57
aI64
aI40
aI377
aI84
aI80
aI54
aI72
aI77
aI244
aI55
aI86
aI186
aI62
aI123
aI101
aI325
aI89
aI43
aI104
aI130
aI106
aI298
aI240
aI74
aI84
aI49
aI65
aI201
aI162
aI76
aI190
aI80
aa(lp32
I240
aI148
aI191
aI119
aI343
aI113
aI125
aI89
aI211
aI148
aI139
aI237
aI113
aI219
aI145
aI802
aI128
aI205
aI509
aI89
aI274
aI160
aI82
aI86
aI558
aI71
aI80
aI96
aI233
aI96
aI592
aFnan
aI120
aI84
aI98
aI176
aI147
aI57
aI75
aI274
aI113
aI164
aI284
aI416
aI86
aI134
aI71
aI60
aI300
aI296
aI248
aI157
aI128
aI119
aI52
aI298
aI87
aI203
aI227
aI274
aI104
aI177
aI81
aI478
aI122
aI398
aI817
aI59
aI86
aI115
aI248
aI142
aI391
aI217
aI71
aI117
aI147
aI88
aI78
aI64
aI67
aI84
aI57
aI79
aI101
aI222
aI75
aI134
aI180
aI60
aI100
aI230
aI175
aI250
aI67
aI139
aI95
aI182
aI296
aI67
aa(lp33
I335
aI133
aI269
aI152
aI299
aI86
aI131
aI274
aI394
aFnan
aI388
aI138
aI126
aI400
aI72
aI270
aI250
aI100
aI377
aI86
aI143
aI96
aI141
aI302
aI92
aI220
aI281
aI231
aI215
aI167
aI154
aI92
aI100
aI110
aI457
aI94
aI220
aI131
aI77
aI339
aI73
aI149
aI314
aI89
aI96
aI247
aI79
aI315
aI422
aI263
aI152
aI255
aI616
aI186
aI115
aI330
aI78
aI583
aI129
aI85
aI96
aI210
aI340
aI99
aI162
aI92
aI81
aI102
aI115
aI100
aI195
aI143
aI236
aI364
aI76
aI356
aI117
aI131
aI244
aI200
aI108
aI168
aI396
aI209
aI83
aI297
aI101
aI213
aI65
aI469
aI328
aI447
aI655
aI155
aI134
aI364
aI115
aI245
aI393
aI125
aa(lp34
I398
aI186
aI278
aI153
aI230
aI124
aI390
aI243
aI190
aI255
aI309
aI303
aI243
aI113
aI133
aI234
aI106
aI99
aI95
aI201
aI195
aI211
aI194
aI387
aI101
aI255
aI251
aI188
aI183
aI314
aI160
aI188
aI125
aI117
aI341
aI110
aI111
aI172
aI139
aI253
aI211
aI245
aI108
aI237
aI497
aI267
aI312
aI157
aI363
aI346
aFnan
aI146
aI113
aI275
aI116
aI297
aI212
aI243
aI231
aI340
aI207
aI151
aI437
aI192
aI159
aI110
aI188
aI393
aI183
aI468
aI186
aI156
aI153
aI128
aI126
aI292
aI218
aI157
aI203
aI239
aI260
aI262
aI318
aI185
aI210
aI121
aI187
aI119
aI420
aI253
aI244
aI116
aI118
aI138
aI195
aI172
aI247
aI220
aI310
aI303
aa(lp35
I674
aI151
aI187
aI154
aI155
aI162
aI157
aI177
aI268
aI364
aI422
aI243
aI438
aI313
aI231
aI210
aI302
aI324
aI715
aI266
aI242
aI132
aI202
aI271
aI428
aI155
aI278
aI271
aI224
aI352
aI455
aI228
aI180
aI233
aI438
aFnan
aI133
aI194
aI208
aI384
aI523
aI183
aI144
aI247
aI115
aI303
aI206
aI257
aI122
aI387
aFnan
aI169
aI232
aI399
aI190
aI263
aI119
aI107
aI128
aI339
aI185
aI173
aI351
aI157
aI217
aI133
aI279
aI376
aI143
aI396
aI293
aI174
aI319
aI249
aI128
aI103
aI136
aI207
aI246
aI184
aI278
aI117
aI267
aI459
aI505
aI229
aI157
aI245
aI204
aI258
aI335
aI501
aI227
aI165
aI281
aFnan
aI126
aI267
aI351
aI330
aaa(lp36
(lp37
I34
aI22
aI33
aI44
aI22
aI93
aI66
aI30
aI35
aI59
aI218
aI36
aI47
aI194
aI10
aI47
aI36
aI116
aI57
aI28
aI42
aI22
aI43
aI40
aI92
aI37
aI34
aI24
aI25
aI80
aI12
aI22
aI23
aI58
acnumpy.core.multiarray
scalar
p38
(cnumpy
dtype
p39
(S'i8'
p40
I0
I1
tp41
Rp42
(I3
S'<'
p43
NNNI-1
I-1
I0
tp44
bS'-\x00\x00\x00\x00\x00\x00\x00'
p45
tp46
Rp47
aI64
aI283
aI113
aI18
aI188
aI19
aI37
aI41
aI31
aI324
aI31
aI35
aI52
aI34
aI26
aI289
aI16
aI20
aI132
aI36
aI35
aI15
aI20
aI21
aI21
aI29
aI44
aI22
aI14
aI123
aI21
aI31
aI30
aI28
aI49
aI99
aI16
aI47
aI49
aI25
aI156
aI32
aI41
aI176
aI23
aI32
aI15
aI17
aI14
aI22
aI112
aI15
aI17
aI16
aI28
aI34
aI32
aI48
aI25
aI23
aI26
aI92
aI140
aI106
aI34
aa(lp48
I188
aI70
aI40
aI155
aI51
aI158
aI60
aI51
aI81
aI107
aI56
ag38
(g42
S't\x00\x00\x00\x00\x00\x00\x00'
p49
tp50
Rp51
aI61
aI281
aI54
aI72
aI189
aI105
aI66
aI70
aI169
aI44
aI49
aI138
aI408
aI199
aI51
aI198
aI117
aI63
aI74
aI109
aI23
aI192
aI32
aI128
aI67
aI110
aI176
aI203
aI74
aI61
aI59
aI109
aI182
aI89
aI76
aI140
aI199
aI70
aI163
aI85
aI47
aI101
aI86
aI72
aI171
aI350
aI54
aI48
aI56
aI77
aI69
aI53
aI69
aI39
aI57
aI179
aI102
aI50
aI406
aI128
aI233
aI155
aI90
aI51
aI73
aI112
aI80
aI66
aI72
aI62
aI56
aI68
aI109
aI86
aI114
aI132
aI157
aI285
aI33
aI67
aI367
aI27
aI80
aI69
aI118
aI100
aI75
aI55
aa(lp52
I105
aI198
aI179
aI110
aI84
aI160
aI184
aI105
aI215
aI136
aI82
aI148
aI157
aI192
aI123
aI77
aI175
aI96
aI305
aI173
aI221
aI321
aI187
aI53
aI185
aI121
aI95
aI82
aI141
aI47
aFnan
aI160
aI44
aI72
aI343
aI96
aI108
aI49
aI73
aI81
aI212
aI306
aI115
aI153
aI105
aI106
aI475
aI188
aI209
aI72
aI487
aI81
aI121
aI109
aI386
aI208
aI99
aI81
aI101
aI127
aI59
aI72
aI58
aI142
aI61
aI52
aI225
aI200
aI166
aI361
aI96
aI78
aI164
aI91
aI108
aI156
aI134
aI57
aI126
aI137
aI100
aI176
aI73
aI175
aI74
aI75
aI165
aI141
aI64
aI187
aI79
aI179
aI297
aI128
aI72
aI219
aI113
aI205
aI168
aI90
aa(lp53
I185
aI164
aI173
aI86
aI147
aI175
aI59
aI149
aI208
aI91
aI207
aI261
aI52
aI193
aI138
aI79
aI61
aI224
aI100
aI313
aI97
aI210
aI239
aI211
aI257
aI149
aI180
aI114
aI91
aI138
aI109
aI138
aI126
aFnan
aI281
aI154
aI73
aI81
aI350
aI116
aI65
aI156
aI136
aI127
aI88
aI89
aI297
aI194
aI150
aI84
aI367
aI197
aI61
aI114
aI116
aI97
aI179
aI222
aI193
aI148
aI114
aI101
aI282
aI301
aI147
aI110
aI301
aI220
aI149
aI90
aI96
aI166
aI218
aI140
aI135
aI77
aI95
aI311
aI59
aI117
aI208
aI118
aI264
aI117
aI225
aI204
aI115
aI201
aI150
aI72
aI187
aI146
aI93
aI91
aI214
aI83
aI127
aI55
aI118
aI161
aa(lp54
I323
aI242
aI180
aI266
aI123
aI135
aI138
aI188
aI157
aI105
aI159
aI120
aI144
aI319
aI175
aI238
aI148
aI197
aI170
aI318
aI219
aI249
aI336
aI193
aI277
aI554
aI154
aI169
aI200
aI206
aI144
aI115
aI125
aI81
aI301
aI148
aI247
aI213
aI115
aI240
aI139
aI135
aI75
aI141
aI114
aI110
aI232
aI341
aI328
aI257
aI268
aI185
aI264
aI227
aI200
aI161
aI185
aI134
aI113
aI109
aI202
aI148
aI233
aI108
aI112
aI270
aI185
aI313
aI175
aI165
aI217
aI180
aI156
aI156
aI129
aI214
aI208
aI131
aI176
aI202
aI224
aI90
aI96
aI215
aFnan
aI264
aI173
aI122
aI134
aI178
aI121
aI117
aI288
aI125
aI220
aI87
aI112
aI514
aI279
aI209
aa(lp55
I315
aI162
aI190
aI142
aI144
aI127
aI255
aI191
aI226
aI83
aI176
aI204
aI220
aI352
aI157
aI174
aI237
aI279
aI220
aI120
aI146
aI235
aI214
aI173
aI199
aI177
aI236
aI172
aI172
aI150
aI228
aI315
aI182
aI125
aI274
aI92
aI182
aI197
aI129
aI120
aI312
aI274
aI115
aI329
aI110
aI255
aI277
aI177
aI240
aI178
aI406
aI326
aI144
aI102
aI191
aI182
aI217
aI250
aI108
aI246
aI125
aI346
aI138
aI97
aI147
aI201
aI239
aI147
aI190
aI166
aI150
aI259
ag38
(g42
S'\xef\x00\x00\x00\x00\x00\x00\x00'
p56
tp57
Rp58
aI231
aI175
aI286
aI155
aI174
aI268
aI341
aI95
aI187
aI217
aI199
aI159
aI458
aI148
aI122
aI316
aI166
aI149
aI228
aI167
aI111
aI242
aI100
aI307
aI122
aI144
aI217
aaa(lp59
(lp60
I205
aI18
aI25
aI94
aI22
aI24
aI81
aI26
aI264
aI39
aI85
aI44
aI15
aI71
aI38
aI25
aI64
aI10
aI24
aI20
aI27
aI24
aI22
aI53
aI47
aI44
aI63
aI53
aI34
aI21
aI198
aI115
aFnan
aI25
aI16
aI24
aI30
aI41
aI21
aI37
aI30
aI24
aI19
aI59
aI25
aI22
aI14
aI91
aI40
aI30
aI29
aI115
aI38
aI64
aI35
aI30
aI224
aI39
aI75
aI23
aI44
aI32
aI270
aI26
aI25
aI35
aI14
aI28
aI25
aI66
aI40
aI15
aI11
aI24
aI24
aI32
aI36
aI18
aI25
aI18
aI33
aI60
aI153
aI24
aI29
aI25
aI27
aI169
aI38
aI26
aI41
aI26
aI44
aI12
aI14
aI26
aI108
aI17
aI18
aI40
aa(lp61
I123
aI148
aI121
aI70
aI42
aI65
aI64
aI121
aI58
aI39
aI40
aFnan
aI285
aI208
aI103
aI40
aI67
aI58
aI213
aI77
aI67
aI132
aI98
aI78
aI70
aI83
aI44
aI54
aI205
aI71
aI62
aI125
aI122
aI50
aI169
aI109
aI92
aI55
aI38
aI55
aI69
aI81
aI224
aI67
aI161
aI47
aI91
aI386
aI68
aI190
aFnan
aI71
aI121
aI40
aFnan
aI67
aI46
aI32
aI141
aI91
aI65
aI93
aI287
aI75
aI91
aI274
aI38
aI201
aI99
aI156
aI80
aI124
aI65
aI190
aI55
aI185
aI115
aI41
aI75
aI92
aI57
aI86
aI70
aI62
aI50
aI29
aI42
aI57
aI165
aI88
aI115
aI41
aI54
aI270
aI93
aI61
aI69
aI47
aI123
aI99
aa(lp62
I63
aI80
aI182
aI208
aI99
aI66
aI94
aI72
aI190
aI101
aI277
aI85
aI84
aI65
aI101
aFnan
aI82
aI122
aI79
aI96
aI230
aI43
aI245
aI85
aI103
aI72
aI147
aI44
aI195
aI87
aI166
aI72
aI189
aI62
aI70
aI56
aI138
aI41
aI205
aI88
aI186
aI149
aI137
aI90
aI188
aI106
aI54
aI78
aI101
aI106
aI73
aI106
aI160
aI79
aI56
aI42
aI64
aI134
aI162
aI70
aI59
aI111
aI177
aI139
aI36
aI287
aI113
aI216
aI153
aI323
aI114
aI124
aI294
aI131
aI143
aI61
aI73
aI170
aI77
aI94
aI66
aI84
aI91
aI80
aI118
aI140
aI106
aI90
aI73
aI53
aI63
aI64
aI70
aI188
aI269
aI53
aI73
aI154
aI114
aI242
aa(lp63
I173
aI63
aI138
aI60
aI306
aI122
aI104
aI90
aI222
aI155
aI68
aI105
aI89
aI242
aI71
aI217
aI59
aI99
aI79
aI200
aI218
aI323
aI71
aI123
aI197
aI159
aI442
aI248
aI276
aI114
aI124
aI79
aI67
aI90
aI285
aI119
aI232
aI67
aI82
aI295
aI73
aI116
aI270
aI51
aI353
aI102
aI234
aI103
aI81
aI232
aI334
aI65
aI123
aI248
aI123
aI102
aI199
aI143
aI134
aI158
aI119
aI87
aI87
aI148
aI85
aI217
aI63
aI236
aI211
aI471
aI58
aI74
aI93
aI133
aI121
aI132
aI130
aI64
aI105
aI126
aI76
aI89
aI81
aI70
aI109
aI87
aI83
aI63
aI81
aI202
aFnan
aI144
aI230
aI183
aI199
aI117
aI97
aI67
aI231
aI587
aa(lp64
I201
aI168
aI196
aI96
aI162
aI168
aI123
aI212
aI343
aI122
aI180
aI137
aI71
aI335
aI167
aI305
aI84
aI58
aI207
aI248
aI122
aI168
aI255
aI269
aI97
aI124
aI81
aI145
aI60
aI102
aI95
aI168
aI81
aI182
aI106
aI171
aI182
aI121
aI158
aI180
aI144
aI175
aI263
aI164
aI239
aFnan
aI115
aI147
aI243
aI182
aFnan
aI89
aI98
aI141
aI170
aI170
aI194
aI341
aI170
aI104
aI110
aI115
aI316
aI176
aI186
aI93
aI104
aI390
aI151
aI227
aI144
aI102
aI269
aI157
aI153
aI185
aI105
aI277
aI101
aI76
aI119
aI250
aI171
aI142
aI287
aI126
aI117
aI122
aI239
aI313
aI182
aI301
aI242
aI75
aI136
aI163
aI128
aI77
aI296
aI81
aa(lp65
I317
aI257
aI157
aI128
aI175
aI134
aI108
aI241
aI295
aI170
aI393
aI161
aI98
aI282
aI118
aI212
aI173
aI136
aI168
aI259
aI112
aI395
aI231
aI279
aI224
aI131
aI272
aI293
aI206
aI220
aI103
aI115
aI192
aI70
aI127
aI128
aI220
aI138
aI74
aI303
aI203
aI108
aI189
aI76
aI273
aI188
aI223
aI88
aI319
aI94
aI233
aI234
aI122
aI220
aI112
aI88
aI166
aI280
aI115
aI276
aI145
aI103
aI350
aI202
aI115
aI175
aI88
ag38
(g42
S"'\x01\x00\x00\x00\x00\x00\x00"
p66
tp67
Rp68
aI151
aI222
aI154
aI180
aI209
aI146
aI84
aI95
aI103
aI131
aI92
aI194
aI371
aI112
aI223
aI125
aI161
aI296
aI174
aI104
aI215
aI175
aI118
aI183
aI362
aI206
aI283
aI126
aI189
aI342
aI193
aI209
aaa(lp69
(lp70
I13
aI15
aI33
aI12
aI18
aI18
aI27
aI101
aI139
aI53
aI21
aI58
aI31
aI47
aI15
aI60
aI48
aI19
aI23
aI13
aI13
aI20
aI54
ag38
(g42
S'4\x00\x00\x00\x00\x00\x00\x00'
p71
tp72
Rp73
aI17
aI23
aI39
aI33
aI23
aI21
aI20
aI107
aI14
aI17
aI13
aI44
aI18
aI17
aI25
aI18
aI16
aI31
aI44
aI38
aI16
aI26
aI19
aI15
aI34
aI18
aI55
aI18
aI19
aI33
aI18
aI19
aI106
aI26
aI25
aI18
aI18
aI14
aI27
aI18
aI15
aI28
aI22
aI29
aI24
aI17
aI20
aI22
aI83
aI22
aI24
aI18
aI13
aI16
aI15
aI26
aI26
aI21
aI40
aI30
aI31
aI38
aI16
aI27
aI20
aI23
aI17
aI61
aI15
aI18
aI108
aI28
aI19
aI31
aI39
aI43
aa(lp74
I164
aI135
aI105
aI105
aI69
aI73
aI55
aI41
aI136
aI75
aI48
aI54
aI68
aI39
aI31
aI61
aI105
aI133
aI59
aI34
aI39
aI96
aI36
aI189
aI49
aI37
aI202
aI74
aI47
aI135
aI158
aI40
aI40
aI43
aI58
aI154
aI89
aI56
aI85
aI205
aI99
aI63
aI38
aI121
aI194
aI102
aI72
aI33
aI211
aI44
aI36
aI66
aI196
aI76
aI50
aI61
aI106
aI87
aI88
aI39
aI54
aI72
aI33
aI55
aI111
aI70
aI71
aI144
aI111
aI45
aI31
aI55
aI89
aI88
aI62
aI67
aI113
aI51
aI69
aI286
aI144
aI90
aI238
aFnan
aI57
aI113
aI45
aI77
aI62
aI51
aI75
aI128
aI33
aI84
aI60
aI65
aI66
aI37
aI28
aI178
aa(lp75
I83
aI62
aI165
aI81
aI58
aI114
aI76
aI131
aI69
aI74
aI69
aI70
aI115
aI59
aI88
aI62
aI139
aI45
aI58
aI51
aI147
aI224
aI139
aI168
ag38
(g42
S'D\x00\x00\x00\x00\x00\x00\x00'
p76
tp77
Rp78
aI44
aI87
aI76
aI213
aI59
aI65
aI62
aI152
aI42
aI56
aI42
aI70
aI120
aI122
aI52
aI72
aI131
aI194
aI96
aI154
aI97
aI168
aI85
aI91
aI133
aI55
aI123
aI57
aI112
aI71
aI67
aI101
aI70
aI106
aI46
aI96
aI66
aI97
aI93
aI78
aI88
aI64
aI140
aI119
aI90
aI103
aI110
aI110
aI140
aI51
aI67
aI77
aI152
aI49
aI54
aI170
aI74
aI101
aI62
aI126
aI80
aI52
aI131
aI63
aI54
aI39
aI52
aI142
aI48
aI158
aI145
aI66
aI52
aI124
aI108
aa(lp79
I118
aI132
aI157
aI84
aI92
aI192
aI120
aI65
aI87
aI51
aI226
aI126
aI123
aI60
aI145
aI133
aI68
aI63
aI217
aI104
aI148
aI172
aI90
aI156
aI199
aI87
aI73
aI117
aI147
aI64
aI94
aI202
aI78
aI74
aI160
aI63
aI96
aI139
aI75
aI189
aI150
aI59
aI165
aI105
aI237
aI108
aI64
aI83
aI177
aI106
aI84
aI74
aI240
aFnan
aI115
aI117
aI80
aI88
aI90
aI137
aI61
aI58
aI196
aI96
aI123
aI160
aI116
aI262
aI127
aI76
aI88
aI61
aI94
aI126
aI90
aI98
aI105
aI236
aI92
aI140
aI61
aI114
aI121
aI127
aI116
aI131
aI145
aI86
aI87
aI92
aI109
aI136
aI129
aI124
aI179
aI133
aI85
aFnan
aFnan
aI263
aa(lp80
I70
aI75
aI100
aI96
aI122
aI158
aI133
aI116
aI215
aI195
aI150
aI108
aI75
aI155
aI167
aI110
aI213
aI86
aI95
aI139
aI156
aI113
aI202
aI84
aI115
aI131
aI177
aI164
aI116
aI137
aI63
aI159
aI87
aI145
aI192
aI94
aI66
aI162
aI129
aI104
aI148
aI134
aI198
aI103
aI185
aI186
aI121
aI100
aI133
aI141
aI126
aI186
aI79
aI164
aI97
aI148
aI118
aI107
aFnan
aI86
aI68
aI92
aI217
aI117
aI122
aI236
aI108
aI113
aI93
aI229
aI101
aI137
aI104
aI154
aFnan
aI96
aI93
aI115
aI193
aI144
aI84
aI141
aI162
aI81
aFnan
aI146
aI82
aI167
aI83
aI298
aFnan
aI146
aI261
aI126
aI191
aI101
aI110
aI111
aI143
aI165
aa(lp81
I238
aI137
aI135
aI110
aI165
aI184
aI144
aI247
aI140
aI114
aI181
aI180
aI164
aI214
aI131
aI116
aI285
aI209
aI166
aI229
aI151
aI64
aI93
aI189
aI325
aI170
aI158
aI108
aI116
aI140
aI175
aFnan
aI136
aI181
aI210
aI124
aI99
aI195
aFnan
aI155
aI125
aFnan
aI119
aI110
aI210
aI99
aI95
aI109
aI141
aFnan
aI306
aI162
aI148
aI159
aI158
aFnan
aI167
aI205
aI112
aI81
aFnan
aI90
aI169
aI127
aI108
aI176
aI104
aI220
aFnan
aI105
aI94
aI110
aI113
aI204
aI205
aI177
aI75
aI72
aI178
aI175
aI145
aI90
aI152
aI188
aI247
aI182
aI136
aI104
aI176
aI163
aI161
aI203
aI210
aI159
aI72
aI160
aI132
aI189
aI106
aI208
aaa(lp82
(lp83
I61
aI25
aI23
aI20
aI24
aI79
aI30
aI16
aI32
aI14
aI91
aI29
aI57
aI29
aI18
aI67
aI42
aI17
aI226
aI16
aI57
aI43
aI11
aI73
aI34
aI10
aI24
aI32
aI22
aI22
aI14
aI17
aI35
aI26
aI18
aI32
aI23
aI44
aI17
aI24
aI15
aI19
aI18
aI24
aI43
aI18
aI66
aI20
aI48
aI12
aI19
aI23
aI27
aFnan
aI34
aI13
aI12
aI27
aI38
aI24
aI28
aI18
aI43
aI28
aI21
aI14
aI40
aI50
aI18
aI22
aI20
aI26
aI21
aI26
aI15
aI36
aI52
aI26
aI13
aI15
aI13
aI21
aI36
aI29
aI26
aI12
aI18
aI27
aI12
aI20
aI13
aI18
aI26
aI21
aI22
aI22
aI41
aI14
aI28
aI24
aa(lp84
I55
aI37
aI67
aI89
aI49
aI35
aI27
aI42
ag38
(g42
S'1\x00\x00\x00\x00\x00\x00\x00'
p85
tp86
Rp87
aI54
aI51
aI27
aI71
aI88
aI25
aI52
aI53
aI41
aI212
aI178
aI52
aI182
aI86
aI139
aI47
aI41
aI53
aI72
aI56
aI186
aI67
aI51
aI75
aI48
aI60
aI134
aI87
aI64
aI54
aI39
aI61
aI69
aI52
aI88
aI29
aI30
aI133
aI101
aI65
aI135
aI49
aI56
aI91
aI59
aI30
aI42
aI83
aI34
aI31
aI44
aI34
aI33
aI74
aI45
aI97
aI159
aI68
aI35
aI84
aI74
aI172
aI73
aI126
aI148
aI43
aI112
aI19
aI36
aI68
aI43
aI48
aI69
aI108
aI74
aI53
aI82
aI54
aI89
aI44
aI53
aI122
aI35
aI86
aI158
aI52
aI67
aI66
aI40
aI38
aI61
aa(lp88
I44
aI41
aI109
aI61
aI123
aI56
aI62
aI57
aI65
aI150
aI108
aI118
aI77
aI59
aI45
aI129
aI90
aI106
aI61
aI59
aI54
aI55
aI55
aI126
aI221
aI47
aI79
aI73
aI70
aI62
aFnan
aI98
aI84
aI249
aI52
aI119
aI114
aI86
aI80
aI80
aI90
aI92
aI45
aI108
aI232
aI70
aI41
aI71
aI77
aI89
aI57
aI63
aI83
aI72
aI66
aI94
aI207
aI122
aI34
aFnan
aI52
aI41
aI243
aI127
aI100
aI58
aI58
aI165
aI41
aI59
aI41
aI71
aI68
aI69
aI33
aI173
aI97
aI37
aI128
aI54
aI173
aI69
aI74
aI89
aI85
aI46
aI65
aI52
aFnan
aI77
aI135
aI288
aI122
aI132
aI52
aI169
aI52
aI65
aI77
aI50
aa(lp89
I150
aI41
aI45
aI118
aI144
aI95
aI52
aI57
aI184
aI42
aI68
aI230
aI60
aI63
aI72
aI163
aI191
aI59
aI137
aI181
aI149
aI203
aI77
aI198
aI186
aI145
aI172
aI65
aI106
aI99
aI96
aI113
aI69
aI90
aI257
aI117
aI83
aI80
aI74
aI49
aI218
aI94
aI69
aI78
aI298
aI82
aI151
aI96
aI141
aI101
aI252
aI76
aI87
aI122
aFnan
aI103
aI82
aI187
aI171
aI152
aI106
aI87
aI241
aI70
aI98
aI67
aI123
aI112
aI56
aI116
aI100
aI70
aI61
aI80
aI59
aI76
aI64
aI108
aI151
aI127
aI58
aI58
aI66
aI49
aI241
aFnan
aI82
aI64
aI112
aI203
aI81
aI197
aI154
aI130
aI53
aI117
aI99
aI61
aI110
aI137
aa(lp90
Fnan
aI177
aFnan
aI209
aI145
aI70
aI91
aI70
aI132
aI134
aI189
aI121
aI194
aI76
aI82
aI211
aI81
aI73
aI188
aI108
aI90
aI98
aI191
aFnan
aI74
aI106
aI96
aI93
aI134
aI96
aI122
aI95
aI81
aI143
aI121
aI131
aI152
aI311
aI56
aI135
aI98
aI77
aI149
aI114
aI223
aI109
aFnan
aI116
aI162
aI106
aI214
aI144
aI80
aI98
aI207
aI205
aI98
aI140
aI77
aI110
aFnan
aI147
aI77
aI123
aI124
aI109
aI163
aI144
aI152
aI233
aI126
aI62
aI180
aI59
aI143
aI143
aI97
aI103
aI147
aI148
aI236
aI144
aI250
aI143
aI87
aI114
aI78
aI96
aI157
aI327
aI153
aI174
aI93
aI146
aI227
aI191
aI106
aI148
aI143
aI95
aa(lp91
I157
aI146
aI86
aI173
aI128
aI117
aI129
aI123
aI124
aI133
aI299
aI175
aI122
aI205
aI136
aI168
aI188
aI118
aFnan
aI155
aI126
aI104
aI95
aI88
aI177
aI180
aI76
aI123
aI100
aI69
aI190
aI95
aI92
aI80
aI148
aI152
aI118
aI119
aI80
aI248
aI144
aI252
aI104
aI115
aI172
aI67
aI197
aI115
aI213
aI172
aI223
aI168
aI117
aI115
aI86
aI164
aI254
aI246
aI108
aI91
aI98
aFnan
aI200
aFnan
aI117
aI123
aI80
aI107
aI107
aI182
aI93
aI204
aI262
aI131
aI102
aI139
aI122
aI135
aI176
aI119
aI116
aI162
aI194
aI225
aI149
aI101
aI176
aI64
aI142
aI185
aI114
aI85
aI195
aI169
aI73
aI152
aI132
aI150
aI161
aI131
aaa(lp92
(lp93
I15
aI22
aI21
aI15
aI14
aI19
aI10
aI29
aI24
aI39
aI28
aI18
aI20
aI47
aI18
aI16
aI36
aI32
aI33
aI11
aI9
aI15
aI25
aI21
aI30
aI21
aI39
aI26
aI26
aI29
aI9
aI12
aI10
aI12
aI22
aI22
aI23
aI17
aI23
aI27
aI18
aI38
aI39
aI19
aI11
aI11
aI21
aI14
aI18
aI28
aI34
aI17
aI25
aI26
aI79
aI27
aI15
aI120
aI24
aI15
aI20
aI64
aI61
aI37
aI42
aI15
aI26
aI12
aI21
aI119
aI19
aI13
aI16
aI23
aI53
aI23
aI20
aI15
aI12
aI25
aI46
aI30
aI45
aI12
ag38
(g42
S'!\x00\x00\x00\x00\x00\x00\x00'
p94
tp95
Rp96
aI20
aI22
aI36
aI26
aI23
aI12
aI22
aI16
aI27
aI17
aI69
aI30
aI33
aI10
aI20
aa(lp97
I57
aI66
aI42
aI68
aI59
aI35
aI48
aI54
aI127
aI72
aI154
aI56
aI74
aFnan
aI44
aI39
aI33
aI81
aI57
aI42
aI68
aI113
aI58
aI53
aI66
aI75
aI27
aI41
aI58
aI41
aI49
aI71
aI76
aI52
aI79
aI32
aI59
aI61
aI36
aI80
aI90
aI53
aI137
aI116
aI27
aI27
aI33
aI32
aI51
aI32
aI113
aI41
aI46
aI64
aI38
aI60
aI42
aI47
aI108
aI56
aI57
aI61
aI48
aI52
aI157
aI44
aI30
aI134
aI60
aI61
aI55
aI67
aI42
aI69
aI83
aI103
aI40
aI36
aI41
aI38
aI61
aI44
aI303
aI58
aI59
aI82
aI39
aI66
aI42
aI34
aI45
aI63
aI145
aI58
aI32
aI50
aI49
aI59
aI87
aI51
aa(lp98
I88
aI73
aFnan
aI67
aI108
aI87
aI77
aI67
aI69
aI104
aI146
aI82
aI78
aI239
aI116
aI66
aFnan
aI139
aI160
aI101
aI111
aI105
aI69
aI225
aI176
aI51
aI94
aI45
aI109
aI86
aI68
aI65
aI133
aI104
aI118
aI70
aI115
aI34
aI84
aI145
aI79
aI86
aI91
aI47
aI81
aI89
aI276
aI116
aI77
aI106
aI141
aFnan
aI56
aI91
aI61
aI45
aI106
aI210
aI94
aI40
aI67
aI110
aI70
aI77
aI77
aI115
aI236
aI196
aI54
aI165
aI119
aI115
aI119
aI39
aI47
aI78
aI69
aI83
aI60
aI45
aI150
aI120
aI146
aI72
aI43
aI74
aI76
aI62
aI55
aI87
aI119
aI117
aI238
aI80
aI70
aI67
aI53
aI93
aI128
aI165
aa(lp99
I155
aI78
aI58
aI97
aI88
aI87
aI42
aI80
aI112
aI108
aI189
aI100
aI136
aI100
aI93
aI128
aI60
aI70
aI148
aI60
aI83
aI108
aI137
aI63
aI65
aI53
aI112
aI41
aI54
aI54
aI62
aI49
aI59
aI70
aI108
aI97
aI57
aI106
aI68
aI64
aI85
aI73
aI63
aI106
aI115
aI95
aI59
aI72
aI53
aI103
aI116
aI92
aI76
aI60
aI76
aI76
aI65
aI72
aI69
aI50
aI95
aI51
aI121
aI66
aI73
aI63
aI98
aI77
aI74
aI117
aI100
aFnan
aI71
aI39
aI56
aI94
aI139
aI86
aI59
aI54
aI201
aI45
aI230
aI154
aI99
aI109
aI79
aI72
aI60
aI209
aI130
aI186
aI128
aI65
aI179
aI80
aI89
aI95
aI86
aI101
aa(lp100
I144
aI91
aI78
aI97
aFnan
aI155
aI66
aI116
aI74
aI93
aI165
aI115
aI106
aI61
aI114
aI80
aI168
aI76
aI108
aI109
aI88
aI103
aI212
aI76
aI95
aI132
aI124
aI117
aI85
aI55
aI220
aI87
aI67
aI70
aI120
aI176
aI76
aI89
aI112
aI104
aI76
aI87
aI64
aI102
aI81
aI104
aI212
aI85
aI165
aI147
aI159
aI61
aI111
aI136
aI149
aI139
aI102
aI184
aI91
aI78
aI81
aI58
aI60
aI105
aI87
aI140
aI174
aI112
aI116
aI97
aI92
aI122
aI97
aI91
aI101
aI128
aI81
aI140
aI93
aI107
aI102
aI75
aI122
aI173
aI83
aI101
aI76
aI88
aI140
aI148
aI64
aI72
aI101
aI117
aI246
aI142
aI108
aI86
aI86
aI84
aa(lp101
I90
aI120
aI137
aI103
aI123
aI201
aI130
aI102
aI109
aI89
aI126
aI155
aI123
aI73
aI156
aI223
aI128
aI97
aI97
aI226
aI122
aI85
aI203
aI132
aI130
aI84
aI135
aI180
aI144
aI105
aI112
aI152
aI110
aI85
aI148
aI182
aI151
aI89
aI78
aI107
aI161
aI94
aI143
aI98
aI140
aI126
aI108
aI125
aI147
aI136
aI157
aI93
aI90
aI109
aI104
aI92
aFnan
aI74
aI101
aI92
aI90
aI119
aI155
aI92
aI94
aI129
aI82
aI158
aI105
aI92
aI77
aI123
aI61
aI101
aI59
aI135
aI131
aI99
aI104
aI85
aI79
aI124
aI127
aI144
aI88
aI151
aI99
aI74
aI98
aI179
aI158
aI92
aI79
aI104
aI180
aI147
aFnan
aI114
aI123
aI179
aaa(lp102
(lp103
I38
aI12
aI20
aI35
aI16
aI31
aI21
aI16
aI15
aI27
aI16
aI41
aI22
aI18
aI50
aI39
aI15
aI30
aI15
aI21
aI13
aI35
aI21
aI25
aI25
aI22
aI32
aI22
aI18
aI22
aFnan
aI17
aI71
aI28
aI29
aI25
aI12
aI20
aI17
aI18
aI21
aI11
aI14
aI18
aI28
aI14
aI17
aI39
aI31
aI22
aI25
aI16
aI13
aI18
aI46
aI13
aI18
aI10
aI101
aI20
aI30
aI50
aI25
aI32
aI23
aI44
aI30
aI30
aI24
aI170
aI22
aI32
aI25
aI14
aI19
aI21
aI22
aI19
aI13
aI26
aI14
aI34
aI18
aI44
aI30
aI17
aI13
aI23
aI20
aI20
aI40
aI21
aI17
aI14
aI15
aI29
aI30
aI25
aI15
aI17
aa(lp104
I51
aI25
aI70
aI37
aI28
aI49
aI43
aI48
aI86
aI42
aI47
aI34
aI46
aI133
aI78
aI41
aI54
aI50
aI59
aI108
aI48
aI39
aI81
aI82
aI53
aI30
aI77
aI50
aI39
aI35
aI93
aI40
aI44
aI106
aI40
aI42
aI92
aI30
aI73
aI33
aI38
aI24
aI80
aI38
aI106
aI45
aI73
aI46
aI28
aI52
aI40
aI67
aI58
aI48
aI47
aI36
aI36
aI77
aI38
aI58
aI83
aI30
aI59
aI44
aI33
aI55
aI47
aI60
aI26
ag38
(g42
S'(\x00\x00\x00\x00\x00\x00\x00'
p105
tp106
Rp107
aI55
aI50
aI79
aI49
aI33
aI38
aI55
aI57
aI85
aI41
aI36
aI55
aI203
aI55
aI49
aI57
aI144
aI71
aI118
aI41
aI47
aI106
aI38
aI96
aI40
aI74
aI114
aI60
aI33
aI65
aa(lp108
I108
aI105
aI50
aI47
aI87
aI69
aI43
aI64
aI71
aI115
aI35
aI32
aI140
aI114
aI44
aFnan
aI72
aI52
aI43
aI167
aI83
aI67
aI39
aI84
aI186
aI62
aI32
aI61
aI156
aI43
aI69
aI70
aI85
aI52
aI65
aI59
aI59
aI110
aI53
aI47
aI87
aI42
aI45
aI79
aI127
aI67
aI64
aI51
aI66
aI106
aI49
aI102
aI31
aFnan
aI77
aI65
aI57
aI51
aI85
aI51
aI71
aI54
aI51
aI74
aI48
aI34
aI84
aI102
aI59
aI148
aI81
aI44
aI100
aI61
aI41
aI60
aI74
aI111
aI111
aI80
aI39
aI52
aI51
aI51
aI46
aI89
aI51
aI110
aI59
aI42
aI61
aI47
aI90
aI74
aI77
aI80
aI103
aI127
aI55
aI49
aa(lp109
I78
aI51
aI59
aI52
aI65
aI63
aI88
aI85
aI99
aI62
aI154
aI81
aI102
aI158
aI70
aI164
aI154
aI103
aI52
aI52
aI73
aI140
aI179
aI63
aI93
aI66
aI74
aI62
aI141
aI70
aI66
aI66
aI144
aI47
aI65
aI81
aI144
aI52
aI99
aI146
aI53
aI61
aI58
aI56
aI119
aI78
aI183
aI91
aI223
aI87
aI195
aI85
aI57
aI97
aI56
aI81
aI61
aFnan
aI79
aI120
aI85
aI72
aI62
aI133
aI144
aI169
aI205
aI134
aI78
aI90
aI108
aI59
aI106
aI57
aI48
aI40
aI51
aI141
aI206
aI92
aFnan
aI48
aI136
aI73
aI60
aI104
aI79
aI54
aI43
aI188
aI104
aI221
aI113
aI117
aI78
aI91
aI98
aI94
aI92
aI61
aa(lp110
I195
aI100
aI65
aI85
aI151
aI63
aI64
aI67
aI139
aFnan
aI102
aI120
aI134
aI117
aI69
aI138
aI124
aFnan
aI212
aI78
aI67
aI112
aI131
aI112
aI188
aI81
aI64
aI120
aI87
aI129
aI73
aI154
aI51
aI85
aFnan
aI96
aI101
aI101
aI89
aI166
aI94
aI89
aI82
aI81
aI104
aFnan
aI140
aI191
aI250
aI134
aI161
aI75
aI150
aI81
aI89
aI114
aI136
aI143
aI76
aI97
aI98
aI58
aI164
aI142
aI110
aI75
aI212
aI74
aI90
aI55
aFnan
aI81
aI96
aI76
aI75
aI73
aI99
aI106
aI142
aI90
aI83
aI115
aI149
aI139
aI102
aI80
aI129
aI179
aI56
aI196
aI96
aI169
aI158
aI146
aI155
aI118
aI66
aI122
aI85
aI71
aa(lp111
I74
aI83
aI92
aI112
aI92
aFnan
aFnan
aI114
aI129
aI82
aI123
aI155
aI134
aI89
aI81
aI122
aI121
aI76
aI133
aI193
aI129
aI123
aI136
aI144
aI133
aI121
aI93
aI69
aI82
aI233
aI71
aI138
aI97
aI127
aI151
aI99
aI109
aI133
aI118
aI135
aI122
aI180
aI186
aI95
aI145
aFnan
aI175
aI130
aI210
aI79
aI143
aI112
aFnan
aI143
aI78
aI67
aFnan
aI105
aI142
aI148
aI75
aI136
aI125
aI156
aI73
aI169
aI281
aI66
aI68
aI155
aI119
aI167
aI91
aI96
aFnan
aI89
aI133
aI140
aI96
aI153
aFnan
aI115
aI116
aI80
aI66
aI199
aI145
aI116
aI104
aI198
aI146
aI229
aI124
aI161
aI136
aI181
aI127
aI134
aI77
aI91
aaa(lp112
(lp113
I72
aI49
aI26
aI21
aI56
aI35
aI13
aI19
aI32
aI16
aI18
aI16
aI24
aI13
aI24
aI8
aI17
aI23
aI58
aI14
aI22
aI25
aI15
aI28
aI123
aI13
aI18
aI18
aI13
aI25
aI16
aI13
aI57
aI36
aI34
aI29
aI33
aI14
aI11
aI24
aI26
aI18
aI12
aI40
aI16
aI20
aI23
aI20
aI13
aI8
aI29
aI16
aI24
aI19
aI18
aI42
aI39
aI10
aI14
aI19
aI30
aI20
aI15
aI9
aI26
aI13
aI44
aI32
aI31
aI19
aI14
aI13
aI23
aI23
aI12
aI11
aI17
aI27
aI24
aI24
aI12
aI32
ag38
(g42
S',\x00\x00\x00\x00\x00\x00\x00'
p114
tp115
Rp116
aI13
aI28
aI25
aI32
aI18
aI18
aI19
aI13
aI37
aI43
aI55
aI29
aI26
aI18
aI22
aI30
aI17
aa(lp117
I92
aI54
aI59
aI36
aI30
aI79
aI43
aI63
aI37
aI49
aI67
aI66
aFnan
aI33
aI54
aI51
aI36
aI34
aI48
aI72
aI84
aI70
aI57
aI58
aI101
aI43
aI43
aI103
aI107
aI64
aI44
aI84
aI35
aI54
aI136
aI116
aI66
aI34
aI27
aI30
aI52
aI47
aI35
aI35
aI59
aI66
aI28
aI38
aI66
aI40
aI130
aI24
aI46
aI78
aI26
aI57
aI42
aI168
aI23
aI51
aI45
aI33
aI50
aI98
aI29
aI65
aI71
aI41
aI39
aI36
aI27
aI24
aI61
aI40
aI46
aI38
aI41
aI70
aI28
aI52
aI33
aI52
aI64
aI38
aI59
aI36
aI77
aI35
aI47
aI63
aI53
aI57
aI100
aI38
aI137
aI33
aFnan
aI40
aI29
aI38
aa(lp118
I78
aI53
aI34
aI39
aI54
aI51
aI65
aI55
aI90
aI98
aI49
aI56
aI60
aI202
aI62
aI54
aI54
aI42
aI80
aI72
aI75
aI36
aI83
aI58
aI135
aI37
aI118
aI84
aI42
aI52
aI57
aI54
aI71
aI85
aI79
aI73
aI55
aI48
aI87
aI94
aI110
aI46
aI45
aI31
aI135
aI39
aI70
aI53
aI83
aI67
aI34
aI93
aI64
aI72
aI44
aI105
aI47
aI36
aI60
aI48
aI72
aI43
aI96
aI91
aI73
aI151
aI110
aI50
aI46
aI105
aI62
aI218
aI124
aI62
aI30
aI93
aI38
aFnan
aI131
aI51
aI87
aI77
aI170
aI49
aI58
aI96
aI34
aI62
aI62
aI44
aI82
aI54
aI39
aI79
aI60
aI120
aI87
aI104
aI139
aFnan
aa(lp119
I139
aI59
aI65
aI58
aI62
aI73
aI43
aI68
aI101
aI81
aI80
aI61
aI53
aI133
aI77
aI88
aI117
aI70
aI56
aI69
aI73
aI145
aI144
aI149
aI134
aI84
aI124
aI75
aFnan
aI48
aI72
aI63
aI64
aI74
aI70
aI53
aI82
aI63
aI100
aI101
aI84
aFnan
aI174
aI118
aI139
aI48
aI117
aI50
aI48
aI63
aI48
aI112
aI64
aI79
aI48
aI43
aI73
aI48
aI104
aI53
aI48
aI86
aI39
aI72
aI64
aI66
aI80
aI149
aI61
aI89
aI53
aI48
aI120
aI68
aI72
aI66
aI138
aI89
aI71
aI172
aI48
aI48
aI164
aI120
aI73
aI69
aI50
aI52
aI65
aI42
aI85
aI60
aI54
aI57
aI159
aI63
aI55
aI92
aI123
aI67
aa(lp120
I70
aI127
aI75
aI61
aI53
aI51
aI74
aI88
aI125
aI104
aI108
aI130
aI69
aI92
aI76
aI101
aI107
aI76
aI93
aI141
aFnan
aI182
aI106
aI125
aI75
aI61
aI89
aI52
aI81
aI67
aI105
aI99
aI56
aI153
aI122
aI62
aI110
aI50
aI131
aI141
aI78
aI86
aI117
aI145
aI153
aI103
aI126
aI135
aI131
aI72
aI130
aI71
aI87
aI79
aI85
aI86
aI115
aI145
aI64
aI84
aI87
aI158
aI142
aI92
aI83
aI154
aI137
aI186
aI72
aI128
aI81
aI52
aI75
aI64
aI71
aI82
aI93
aI58
aI94
aI43
aI80
aI68
aI128
aI56
aI115
aI136
aI113
aFnan
aI56
aI95
aI80
aI101
aI182
aI138
aI86
aFnan
aI55
aI106
aFnan
aI106
aa(lp121
I69
aI145
aI58
aI84
aI90
aI75
aI93
aI120
aI170
aI142
aI120
aI138
aI108
aI107
aI151
aI103
aI123
aI98
aI189
aI118
aI105
aI65
aI115
aI139
aI125
aI94
aI105
aI83
aI99
aI150
aI205
aI109
aI79
aI98
aI144
aI101
aI92
aI78
aI84
aI98
aI116
aI101
aI181
aI102
aI122
aI94
aI98
aI91
aI144
aI80
aI92
aI71
aI155
aI106
aI208
aI67
aI97
aI123
aI74
aI58
aI87
aI81
aI93
aFnan
aI119
aI94
aI60
aI125
aI85
aI176
aI114
aI65
aI154
aI99
aFnan
aI101
aI180
aFnan
aI129
aI66
aI65
aI81
aI94
aI73
aI65
aI101
aI73
aI73
aI82
aI119
aI79
aI102
aI131
aI116
aI103
aI94
aI128
aI126
aI121
aI85
aaa(lp122
(lp123
I36
aI28
aI44
aI10
aI18
aI23
aI17
aI14
aI27
ag38
(g42
S'\r\x00\x00\x00\x00\x00\x00\x00'
p124
tp125
Rp126
aI14
aI23
aI36
aI17
aI18
aI10
aI12
aI9
aI22
aI15
aI17
aI11
aI30
aI31
aI24
aI25
aI21
aI18
aI19
aI27
aI22
aI33
aI27
aI15
aI34
aI38
aI15
aI39
aI13
aI16
aI10
aI21
aI22
aI12
aI17
aI18
aI14
aI31
aI29
aI14
aI18
aI16
aI20
aI75
aI29
aI25
aI13
aI19
aI41
aI11
aI32
aI31
aI10
aI22
aI35
aI17
aI15
aI23
aI16
aI8
aI26
aI40
aI20
aI16
aI12
aI9
aI70
aI14
aI18
aI22
aI17
aI66
aI20
aI19
aI39
aI13
aI17
aI21
aI16
aI15
aI16
aI11
aI13
aI27
aI74
aI31
aI64
aI20
aI26
aI20
aa(lp127
I49
aI49
aI22
aI33
aI58
aI29
aI40
aI37
aI41
aI49
aI36
aI33
aI51
aI38
aI67
aI41
aI61
aI29
aI34
aI162
aI93
aI128
aI32
aI34
aI54
aI25
aI28
aI85
aI50
aI40
aI33
aI83
aI37
aI55
aI52
aI41
aI80
aI34
aI40
aI109
aI42
aI43
aI42
aI38
aI33
aI21
aI30
aI42
aI109
aI101
aI74
aI32
aI59
aI112
aI34
aFnan
aI48
aI39
aI77
aI50
aI41
aI33
aI38
aI66
aI37
aI37
aI67
aI56
aI74
aI98
aI52
aI35
aI31
aI69
aI24
aI32
aI31
aI34
aI44
aI39
aI78
aI69
aI56
aI22
aI31
aI55
aI28
aI84
aI41
aI44
aI72
aI112
aI91
aI35
aI52
aI50
aI67
aI36
aI44
aI74
aa(lp128
I34
aI77
aI72
aI67
aI53
aI67
aI85
aI84
aI72
aI68
aI50
aI48
aI88
aI43
aI87
aI40
aI55
aI74
aI97
aI101
aI32
aI108
aI56
aI100
aI56
aI47
aI39
aI84
aI116
aI75
aI60
aI39
aI44
aI61
aI49
aI26
aI60
aI107
aI39
aI93
aI69
aI35
aI47
aI64
aI67
aI38
aI51
aI56
aI86
aI57
aI34
aI77
aI54
aI47
aI83
aI110
aI87
aI52
aI34
aI39
aI47
aI46
aI59
aI55
aI62
aI39
aI53
aI56
aI29
aI50
aI30
aI75
aI52
aI80
aI74
aI90
aI104
aI33
aI37
aI31
aI77
aI60
ag38
(g42
S'&\x00\x00\x00\x00\x00\x00\x00'
p129
tp130
Rp131
aI49
aI40
aI44
aI57
aI48
aI60
aI52
aI82
aI112
aI48
aI80
aI37
aI43
aI52
aI67
aI55
aI58
aa(lp132
I96
aI74
aI56
aI48
aI68
aI57
aI127
aI42
aI76
aI69
aI63
aI43
aI93
aI93
aI40
aI105
aI91
aI44
aI127
aI67
aI86
aI59
aI43
aI76
aI191
aI56
aI111
aI112
aI94
aI41
aI97
aI95
aI52
aI126
aI98
aI37
aI86
aI66
aI60
aI112
aI53
aI48
aI54
aI54
aI63
aI86
aI114
aI70
aI87
aI47
aI128
aI53
aI54
aI76
aI93
aI65
aI50
aI176
aI50
aI53
aI80
aFnan
aI83
aI57
aFnan
aI99
aI118
aI127
aI51
aI115
aI85
aI62
aI116
aI93
aI52
aI88
aI83
aI38
aI64
aI67
aI129
aI98
aI68
aI75
aI68
aI51
aI55
aI59
aI50
aI90
aI51
aI122
aI72
aI104
aI61
aI70
aI67
aI44
aI84
aI90
aa(lp133
I84
aFnan
aI56
aI59
aI76
aI78
aI77
aI68
aI116
aI79
aFnan
aI98
aI73
aI159
aI141
aI65
aI77
aI57
aI69
aI127
aI118
aI103
aI56
aI129
aI129
aI51
aI60
aI121
aI91
aI95
aI59
aI61
aFnan
aI68
aI126
aI59
aI125
aI119
aI58
aI98
aI106
aI92
aI81
aI111
aI114
aI66
aFnan
aI54
aI77
aI134
aI85
aI95
aI119
aI63
aI52
aI45
aI71
aI100
aI56
aI55
aI87
aI72
aI111
aI85
aI69
aI136
aI65
aI55
aI56
aI60
aI73
aI75
aI85
aI99
aI80
aI150
aI69
aI68
aI149
aI70
aI72
aI59
aI74
aI82
aI114
aI86
aI61
aI90
aI79
aI77
aI119
aI107
aI84
aI58
aI81
aI91
aI128
aI100
aI68
aI72
aa(lp134
I80
aI83
aI97
aI108
aI88
aI78
aI86
aI111
aI129
aI102
aI112
aI71
aI93
aI97
aI72
aI154
aI85
aI73
aI140
aI113
aI111
aI104
aI109
aI102
aI111
aI58
aI87
aI117
aI139
aI66
aFnan
aI116
aI73
aI126
aI79
aI90
aI79
aI93
aI89
aI74
aI76
aI122
aFnan
aI107
aI107
aI82
aI113
aI96
aI141
aI136
aI88
aI105
aI91
aI78
aI93
aI112
aI116
aI113
aI68
aI85
aI100
aI128
aI69
aI107
aFnan
aI160
aI95
aI85
aI89
aI94
aI82
aI140
aI117
aI81
aI86
aI90
aI114
aI98
aI68
aI89
aI103
aI97
aI172
aI85
aI69
aI167
aI109
aI111
aI82
aI109
aI106
aI66
aI120
aI64
aI137
aI89
aI86
aI68
aI70
aI176
aaa(lp135
(lp136
I17
aI27
aI49
aI12
aI16
aI23
aI25
aI20
aI12
aI21
aI39
aI13
aI12
aI14
aI27
aI8
aI13
aI43
aI14
aI15
aFnan
aI8
aI18
aI21
aI12
aI43
aI35
aI16
aI28
aI14
aI21
aI31
aI15
aI24
aI19
aI69
aI13
aI11
aI16
aI23
aI15
aI15
aI100
aI14
aI72
aI24
aI43
aI22
aI22
aI19
aI24
aI58
aI14
aI16
aI25
aI33
aI18
aI30
aI23
aI17
aI26
aI18
aI12
aI27
aI28
aI13
aI31
aI16
aI25
aI12
aI14
aI19
aI26
aI36
aI41
aI14
aI32
aI11
aI13
aI25
aI21
aI15
aI23
aI19
aI18
aI20
aI23
aI11
aI21
aI31
aI13
aI13
aI15
aI35
aI23
aI15
aI19
aI35
aI14
aI31
aa(lp137
I35
aI54
aI35
aI36
aI24
aI36
aI43
aI31
aI46
aI24
aFnan
aI70
aI42
aI61
aI26
aI68
aI26
aI40
aI62
aI36
aI43
aI33
aI54
aI57
aI36
aI69
aI28
aI41
aI25
aI30
aI77
aI51
aI37
aI33
aI34
aI43
aI41
aI43
aI41
aFnan
aI59
aI37
aFnan
aI39
aI33
aI44
aI39
aI38
aI131
aI28
aI79
aI35
aI35
aI65
aI24
aI39
aI55
aI93
aI57
aI21
aI25
aI26
aI34
aI64
aI32
aI44
aI60
aI104
aI21
aI59
aI42
aI47
aI39
aI20
aI39
aI39
aI33
aI60
aI48
aI35
aI96
aI42
aI46
aI32
aI42
aI48
aI58
aI30
aI36
aI30
aI47
aI110
aI37
aI35
aI56
aI35
aI42
aI32
aI36
aI41
aa(lp138
I131
aI77
aI90
aI153
aI58
aI62
aI58
aI46
aI73
aI35
aI50
aI75
aI34
aFnan
aI58
aI84
aI68
aI69
aI77
aFnan
aI46
aI85
aI105
aI88
aI49
aI75
aI61
aI54
aI39
aI58
aI77
aI34
aI48
aI96
aI42
aI47
aI33
aI34
aI42
aI57
aI59
aI59
aI41
aI39
aI57
aI29
aI36
aI42
aI54
aI56
aI106
aI39
aI43
aI58
aI51
aI29
aI64
aFnan
aI92
aI43
aI46
aI44
aI48
aI59
aI54
aI38
aI63
aI50
aI62
aI70
aI39
aI75
aI67
aI39
aI50
aI87
aI40
aI95
aI75
aI37
aI43
aI46
aFnan
aFnan
aI52
aI33
aI35
aI45
aI58
aI61
aI52
aI71
aI50
aI40
aI33
aI48
aI44
aI60
aI82
aI87
aa(lp139
I52
aI49
aI80
aI41
aFnan
aI60
aI74
aI86
aI73
aI52
aI60
aI69
aI54
aI55
aI69
aI53
aI47
aI81
aI61
aI76
aI76
aI86
aI144
aI104
aFnan
aI86
aI60
aI50
aI48
aI56
aI87
aI56
aI55
aI61
aI133
aI60
aI74
aI71
aI64
aI64
aI58
aI70
aI84
aI113
aI66
aI58
aI56
aI75
aFnan
aI86
aI44
aI62
aI51
aI42
aI57
aI63
aI64
aI68
aFnan
aI83
aI57
aI53
aI61
aI73
aI48
aI61
aI68
aI105
aI67
aI94
aI81
aI52
aI91
aI120
aI89
aI48
aI53
aI51
aI59
aI59
aI52
aI35
aI142
aI68
aI80
aI77
aI45
aI113
aI92
aI54
aI57
aI108
aI63
aI65
aI85
aI59
aI85
aI79
aI72
aI91
aa(lp140
I66
aI80
aFnan
aI53
aI99
aI68
aI154
aI82
aI72
aI101
aI92
aI79
aI47
aI62
aI83
aI97
aI54
aI58
aI147
aI124
aFnan
aI79
aI77
aI90
aFnan
aI64
aI68
aI78
aI117
aI137
aI60
aI89
aI65
aI89
aI95
aI59
aFnan
aI64
aI75
aI95
aI62
aFnan
aI90
aI62
aI101
aI77
aI58
aI75
aI128
aI102
aI64
aI58
aI91
aI77
aI75
aI63
aI73
aI70
aI82
aI92
aI80
aI68
aI74
aI110
aI65
aI82
aI240
aI82
aI153
aI133
aI72
aI65
aI82
aI64
aI75
aI106
aI93
aI82
aI51
aI74
aI50
aI95
aI63
aI114
aI77
aI61
aI101
aI122
aI74
aI96
aI64
aI89
aI81
aI75
aI110
aI84
aI64
aI106
aI71
aI91
aa(lp141
I120
aI58
aI56
aI91
aI68
aI70
aI81
aI96
aI83
aI102
aI84
aI100
aI111
aI91
aI87
aI114
aI120
aI79
aI81
aI124
aI61
aI87
aI128
aI98
aI90
aI78
aFnan
aI67
aI97
aI66
aI58
aI70
aI79
aI107
aI90
aI61
aI96
aI94
aI71
aI86
aI139
aI112
aI54
aI102
aI128
aI93
aI77
aI91
aI84
aI80
aI116
aI78
aI68
aI86
aI78
aI69
aI92
aI107
aI95
aFnan
aI65
aI73
aI65
aI132
aI66
aI106
aI136
aI101
aI113
aI92
aI88
aI64
aI112
aI100
aI115
aI88
aI64
aI142
aI80
aI104
aI99
aI110
aI130
aI82
aI61
aI98
aI85
aI84
aI124
aI90
aI90
aI106
aI89
aI153
aI87
aI130
aI73
aI152
aI126
aI71
aaa(lp142
(lp143
I16
aI24
aI21
aI30
aI19
aI20
aI28
aI27
aI18
aI27
aI43
aFnan
aI38
aI12
aI13
aI17
aI15
aI25
aI20
aI51
aI35
aI11
aI11
aI12
aI15
aI14
aI16
aI24
aI28
aI16
aFnan
aI28
aI18
aI38
aI12
aI23
aI48
aI13
aI40
aI20
aI16
aI23
aI33
aI22
aI16
aI28
aI9
aI22
aFnan
aI25
aI16
aI30
aI12
aI14
aI15
aI17
aI14
aI22
aI16
aI22
aI16
aI19
aI17
aI27
aI13
aI16
aI33
aI14
aI18
aI13
aI15
aI25
aI12
aFnan
aI12
aI14
aI28
aI19
aI17
aI20
aI18
aI16
aI36
aI12
aI31
aI15
aI11
aI23
aI23
aI37
aI14
aI17
aI22
aI26
aI25
aI20
aI17
aI16
aI25
aI22
aa(lp144
I19
aI30
aI59
aI77
aI35
aI48
aI37
aI56
aI34
aI70
aI50
aI41
aI34
aI42
aI27
aI42
aI49
aI48
aI28
aI43
aI70
aI28
aI49
aI37
aI73
aI24
aI28
aI42
aI31
aI71
aI49
aI24
aI32
aI45
aI33
aI29
aI34
aI23
aI31
aI52
aI34
aI30
aI37
aI46
aI35
aI31
aI61
aI32
aI24
aI32
aI31
aI33
aI40
aI35
aI39
aI41
aI47
aI43
aI48
aI46
aI25
aFnan
aI30
aI32
aI33
aI39
aI40
aI51
aI47
aI23
aI48
aI27
aI59
aI55
aI39
aI43
aI33
aI38
aI62
aI22
aI36
aI27
aI35
aI66
aI45
aI29
aI35
aI43
aI35
aI40
aI36
aI38
aI38
aI31
aI67
aI63
aI59
aI48
aI72
aI31
aa(lp145
I51
aI57
aI38
aI68
aI66
aI51
ag38
(g42
S'a\x00\x00\x00\x00\x00\x00\x00'
p146
tp147
Rp148
aI43
aI64
aI34
aI52
aI51
aI55
aI61
aI53
aI49
aI41
aI42
aI34
aI50
aI38
aI45
aI51
aI70
aI75
aI44
aI45
aI46
aI32
aI49
aI72
aI42
aI71
aI51
aI99
aI34
aI54
aI69
aI48
aI26
aI52
aI42
aI98
aI36
aI38
aI52
aI65
aI82
aI62
aI62
aI34
aI49
aI49
aI72
aI41
aI43
aI52
aI60
aI28
aI33
aI60
aI63
aI66
aI43
aI39
aI36
aI50
aI55
aI56
aI39
aI43
aI43
aI47
aI90
aI36
aI72
aI55
aI57
aI42
aI47
aI66
aI49
aI55
aI44
aI34
aI39
aI81
aI35
aI62
aI42
aI52
aI73
aI40
aI38
aI43
aI42
aI57
aI48
aI35
aI49
aa(lp149
I59
aI43
aI50
aI55
aI53
aI61
aI67
aI37
aI72
aI39
aFnan
aI56
aI69
aI63
aI70
aI63
aI84
aI40
aI91
aI62
aI66
aI52
aI86
aI63
aI58
aI73
aI47
aI46
aI140
aI59
aI75
aI55
aI43
aI62
aI82
aI59
aI89
aI50
aI76
aI108
aI61
aI46
aI87
aI56
aI50
aI62
aI45
aI44
aI40
aI47
aI77
aI56
aI64
aFnan
aI47
aI38
aI54
aI81
aI53
aI51
aI59
aI62
aI51
aI60
aI65
aI123
aI47
aI65
aI62
aI81
aFnan
aI48
aI40
aI54
aI55
aI86
aFnan
aI63
aI59
aI64
aI44
aI56
aI61
aI94
aI41
aI51
aI90
aI68
aI46
aI50
aI72
aI42
aI79
aI63
aFnan
aI41
aI42
aI73
aI93
aI53
aa(lp150
I80
aI52
aI54
aFnan
aI105
aI53
aI57
aI59
aI50
aI60
aI77
aI69
aI73
aI111
aI80
aI77
aI77
aI59
aI62
aI78
aI125
aI74
aI72
aI59
aI108
aI69
aFnan
aI72
aI184
aI81
aI104
aI85
aI103
aI82
aI117
aI49
aI51
aI154
aI90
aI84
aI60
aI72
aI82
aI72
aI63
aI55
aI90
aI64
aI86
aI108
aI62
aI53
aI59
aI63
aI68
aI62
aI63
aI55
aI73
aI68
aI80
aI93
aI53
aI77
aFnan
aI67
aI146
aI64
aI80
aI66
aI62
aI45
aI61
aI58
aI85
aFnan
aI62
aI61
aI64
aI64
aI79
aI67
aI59
aI47
aI73
aI61
aI56
aI93
aI67
aI121
aI64
aI86
aI103
aI59
aI84
aI66
aI54
aI74
aI80
aI63
aa(lp151
Fnan
aI63
aI71
aI85
aI81
aI115
aFnan
aI81
aI66
aI137
aI103
aI71
aI63
aI101
aI85
aI91
aI103
aI81
aI109
aI81
aI72
aI119
aI76
aI80
aI58
aI61
aI133
aI99
aI94
aFnan
aI75
aI55
aFnan
aFnan
aI97
aI81
aI88
aI78
aI65
aI87
aI63
aI76
aI75
aI85
aFnan
aI87
aFnan
aI71
aI98
aI91
aI91
aI68
aI80
aI79
aI70
aI64
aFnan
aI96
aI69
aI72
aI79
aI91
aI110
aI85
aI67
aI100
aI72
aI68
aI88
aI125
aI69
aI77
aI75
aI72
aI87
aI88
aI63
aI58
aI75
aI77
aI98
aI53
aI92
aFnan
aI97
aI70
aI145
aI89
aI98
aFnan
aI126
aI102
aI78
aI74
aI107
aI70
aI81
aI86
aI51
aI103
aaa(lp152
(lp153
I23
aI23
aI19
aI15
aI16
aI15
aI17
aI17
aI17
aI17
aI19
aI36
aI21
aI18
aI24
aI26
aI28
aI28
aI33
aI15
aI11
aI24
aI31
aI24
aI13
aI43
aI18
aI21
aI12
aI24
aI16
aI24
aI16
aI11
aI20
aI16
aI15
aI18
aI31
aI13
aI14
aI19
aI22
aI15
aI15
aI15
aI13
aI17
aI24
aI20
aI17
aI26
aI18
aI29
aFnan
aI13
aI13
aI16
aI37
aI31
aI18
aI17
aI18
aI27
aI28
aI17
aI18
aI34
aI35
aI27
aI14
aI29
aI12
aI22
aI39
aI25
aI16
aI17
aI23
aI13
aI26
aI29
aI28
aI24
aI13
aI17
aI13
aI37
aI21
aI27
aI15
aI18
aI25
aI22
aI29
aI19
aI30
aI26
aI17
aI18
aa(lp154
I40
aI40
aI38
aI28
aI31
aI30
aI30
aI30
aI54
aI30
aI39
aI24
aI62
aI64
aI37
aI44
ag38
(g42
S'.\x00\x00\x00\x00\x00\x00\x00'
p155
tp156
Rp157
aI39
aI42
aI50
aI50
aI33
aI29
aI69
aI59
aI29
aI25
aI34
aI31
aI34
aI35
aI31
aI63
aI27
aI34
aI28
aI34
aI39
aI33
aI43
aI30
aI37
aI30
aI36
aI32
aI38
aI59
aI65
aI28
aI27
aI32
aI33
aI32
aI24
aI29
aI46
aI32
aI28
aI31
aI35
aI40
aI28
aI60
aI28
aI35
aI42
aI40
aI26
aI31
aI34
aI31
aI49
aI25
aI33
aI66
aI58
aI42
aI39
aI36
aI52
aI37
aI48
aI36
aI33
aI34
aI30
aI23
aI34
aI51
aI35
aI31
aI56
aI37
aI31
aI30
aI37
aI30
aI27
aI41
aI52
aa(lp158
I54
aI54
aI32
aI48
aI43
aI48
aI34
aI47
aI31
aI75
aI37
aI36
aI35
aI62
aI43
aI53
aI35
aI92
aI37
aI37
aI57
aI51
aI42
aI49
aI41
aI54
aI44
aI36
aI59
aI66
aI43
aI45
aI46
aI70
aI62
aI43
aI59
aI73
aI39
aI61
aI50
aI42
aI41
aI67
aI53
aI51
aI69
aI49
aI49
aI30
aI32
aI41
aI44
aI48
aI46
ag38
(g42
S'c\x00\x00\x00\x00\x00\x00\x00'
p159
tp160
Rp161
aI53
aI40
aI42
aI54
aI34
aI41
aI42
aI48
aI41
aI43
aI41
aI50
aI34
aI51
aI40
aI34
aI50
aI54
aI52
aI31
aI60
aI47
aI45
aI63
aI37
aI31
aI50
aI41
aI35
aI55
aI28
aI73
aI53
aI77
aI69
aI52
aI64
aI50
aI45
aI38
aI78
aI45
aI58
aI45
aa(lp162
I85
aI50
aI48
aI69
aI57
aI57
aI38
aI48
aI82
aI60
aI45
aI43
aI66
aI73
aI52
aI42
aI51
aI55
aI64
aI60
aI55
aI83
aI60
aI44
aI83
aI45
aI74
aI69
aI41
aI61
aI50
aI46
aI58
aI64
aI94
aI57
aI56
aI61
aI43
aI70
aI52
aI39
aI43
aI47
aI118
aI110
aI65
aI45
aI64
aI65
aI74
aI74
aI49
aI40
aI67
aI44
aI56
aI55
aI75
aI40
aI52
aI94
aI66
aI48
aI41
aI86
aI46
aI67
aI68
aI53
aI50
aI65
aI56
aI73
aI48
aI46
aI57
aFnan
aI84
aI49
aI70
aI58
aI70
aI54
aI53
aI66
aI97
aI64
aI42
aI57
aI58
aI42
aI98
aI43
aI73
aI60
aI48
aI73
aI52
aI48
aa(lp163
I64
aI56
aI93
aI66
aI52
aI86
aI77
aI62
aI74
aI69
aI89
aI71
aFnan
aI61
aI87
aI53
aI51
aI75
aI71
aI59
aI82
aI53
aI48
aI88
aI75
aI92
aI70
aI59
aI55
aI129
aI79
aI76
aI54
aI72
aI90
aI61
aI60
aI73
aI85
aI81
aI93
aI59
aI76
aI87
aI77
aI98
aI88
aI94
aI76
aI58
aI63
aI52
aI80
aI56
aI70
aI68
aI87
aI75
aI66
aI91
aI71
aI68
aI102
aI87
aI45
aI82
aI77
aI78
aI60
aI63
aI95
aI52
aI64
aI89
aI53
aI56
aI72
aI62
aI103
aI59
aI58
aI77
aI73
aFnan
aI61
aI71
aI66
aI74
aFnan
aI102
aI84
aI62
aI90
aI68
aI64
aI58
aI68
aI84
aI64
aI128
aa(lp164
I94
aI65
aI68
aI62
aI63
aI55
aI80
aI90
aI62
aI127
aI83
aI116
aI61
aI59
aI103
aI112
aI63
aI88
aI86
aI90
aI134
aI69
aI124
aI56
aI73
aI57
aI68
aI70
aI89
aI82
aI75
aI89
aI101
aFnan
aI71
aI75
aI64
aI48
aI60
aI74
aI94
aI96
aI66
aI73
aI75
aI97
aI79
aFnan
aI81
aI85
aI57
aI87
aI80
aI141
aI72
aI74
aI57
aI92
aI72
aI66
aI84
aI54
aI83
aI93
aI79
aI124
aI87
aI80
aI61
aI92
aI70
aI88
aI65
aI76
aI66
aI72
aI74
aI63
aI57
aI69
aI65
aI73
aI67
aI65
aI72
aI70
aI63
aI64
aI76
aI81
aI78
aI115
aI111
aI65
aI104
aI71
aI54
aI82
aI62
aI89
aaa.